Certificate:
    Data:
        Version: 1 (0x0)
        Serial Number: 2 (0x2)
    Signature Algorithm: md5WithRSAEncryption
        Issuer: OU=MySQLConnectorPython Root CA, CN=MyConnPy Root CA
        Validity
            Not Before: Jun  7 08:34:05 2018 GMT
            Not After : Jun  7 08:34:05 2019 GMT
        Subject: OU=MySQLConnectorPython Client Cert, CN=localhost
        Subject Public Key Info:
            Public Key Algorithm: rsaEncryption
                Public-Key: (2048 bit)
                Modulus:
                    00:b0:7d:8f:76:14:83:00:6f:19:ff:c2:f2:b4:7c:
                    68:15:17:10:cb:ad:22:9c:f8:45:96:5c:1a:87:71:
                    b8:b1:ac:0f:38:20:f7:06:ca:23:b3:d8:c0:d2:e3:
                    03:c5:d0:d5:dc:2e:c3:db:55:df:0e:a6:c5:4f:d8:
                    15:9c:d5:ad:d4:b7:e6:12:55:1b:db:3d:6a:2b:56:
                    e0:5e:e9:00:f4:d1:4a:9f:f5:c0:a8:f7:30:27:db:
                    50:6b:a1:9e:7c:61:37:b8:ea:a7:c3:e7:1f:a4:d6:
                    95:4a:a3:84:5e:46:0f:49:c7:f5:b2:af:ca:c1:80:
                    56:c6:00:6b:36:56:ce:49:1a:c8:7a:51:e7:0c:64:
                    3c:14:7e:30:fa:80:81:ae:d4:b4:5a:4a:7e:b7:c2:
                    7c:94:d7:87:b4:3f:ae:88:7f:b0:bb:73:1b:fb:c9:
                    c6:85:fd:c7:28:92:79:9c:0a:5d:ec:83:70:c4:e9:
                    73:89:db:07:cc:9f:ba:32:33:30:0e:58:40:be:e6:
                    c3:d2:57:05:1a:2a:1a:61:ff:a3:03:ed:a5:f6:7c:
                    93:f4:90:c0:45:4a:b1:86:61:7a:0c:dd:b8:6d:1e:
                    2b:9f:f2:f8:5f:59:93:1a:4f:35:ae:6b:55:08:79:
                    0a:1a:e3:67:11:7a:9b:c6:e2:82:e8:07:a4:c4:cf:
                    db:ff
                Exponent: 65537 (0x10001)
    Signature Algorithm: md5WithRSAEncryption
         b8:df:ce:d8:e5:ca:c8:8b:28:e4:63:50:da:99:b3:2e:3d:fc:
         8a:34:b9:ce:11:aa:53:c5:14:68:ca:ad:ee:36:33:d3:2e:ad:
         b1:08:61:e4:61:d1:4c:11:f4:62:41:c8:68:09:e5:6e:11:3e:
         58:f0:5f:3a:a5:99:74:e5:67:fd:28:57:b1:95:06:b2:36:1b:
         ef:8f:56:77:3c:3d:17:55:05:f7:d7:0a:35:99:a3:e9:38:ce:
         08:e3:20:93:bc:d4:dc:ee:23:5d:0a:81:b3:63:a3:89:55:13:
         f8:85:ed:5b:1e:54:2d:47:a6:12:6e:f6:06:70:14:c6:23:f7:
         1c:ca:01:5f:7e:d0:32:20:69:24:e9:a4:b4:70:cc:ef:82:02:
         5a:9f:08:e3:69:bc:01:ec:35:5c:5b:ba:0e:31:dd:3e:50:ad:
         84:80:35:6d:a4:43:d0:1c:c5:7c:a4:15:22:62:b2:b9:06:33:
         ab:61:a3:0d:c4:43:4a:04:76:0c:15:86:a5:0c:e5:47:9b:43:
         ff:68:a3:87:85:1a:5a:1d:7b:63:36:5a:a6:cb:4a:0a:a2:f4:
         4f:7f:1d:d9:da:14:11:01:d5:c3:0b:6b:3a:7d:c0:7b:ec:0e:
         be:13:f4:51:44:b2:3d:ed:8f:72:c1:df:d5:04:9d:65:48:47:
         78:69:74:54
-----BEGIN CERTIFICATE-----
MIIC9TCCAd0CAQIwDQYJKoZIhvcNAQEEBQAwQjElMCMGA1UECwwcTXlTUUxDb25u
ZWN0b3JQeXRob24gUm9vdCBDQTEZMBcGA1UEAwwQTXlDb25uUHkgUm9vdCBDQTAe
Fw0xODA2MDcwODM0MDVaFw0xOTA2MDcwODM0MDVaMD8xKTAnBgNVBAsMIE15U1FM
Q29ubmVjdG9yUHl0aG9uIENsaWVudCBDZXJ0MRIwEAYDVQQDDAlsb2NhbGhvc3Qw
ggEiMA0GCSqGSIb3DQEBAQUAA4IBDwAwggEKAoIBAQCwfY92FIMAbxn/wvK0fGgV
FxDLrSKc+EWWXBqHcbixrA84IPcGyiOz2MDS4wPF0NXcLsPbVd8OpsVP2BWc1a3U
t+YSVRvbPWorVuBe6QD00Uqf9cCo9zAn21BroZ58YTe46qfD5x+k1pVKo4ReRg9J
x/Wyr8rBgFbGAGs2Vs5JGsh6UecMZDwUfjD6gIGu1LRaSn63wnyU14e0P66If7C7
cxv7ycaF/ccoknmcCl3sg3DE6XOJ2wfMn7oyMzAOWEC+5sPSVwUaKhph/6MD7aX2
fJP0kMBFSrGGYXoM3bhtHiuf8vhfWZMaTzWua1UIeQoa42cRepvG4oLoB6TEz9v/
AgMBAAEwDQYJKoZIhvcNAQEEBQADggEBALjfztjlysiLKORjUNqZsy49/Io0uc4R
qlPFFGjKre42M9MurbEIYeRh0UwR9GJByGgJ5W4RPljwXzqlmXTlZ/0oV7GVBrI2
G++PVnc8PRdVBffXCjWZo+k4zgjjIJO81NzuI10KgbNjo4lVE/iF7VseVC1HphJu
9gZwFMYj9xzKAV9+0DIgaSTppLRwzO+CAlqfCONpvAHsNVxbug4x3T5QrYSANW2k
Q9AcxXykFSJisrkGM6thow3EQ0oEdgwVhqUM5UebQ/9oo4eFGlode2M2WqbLSgqi
9E9/HdnaFBEB1cMLazp9wHvsDr4T9FFEsj3tj3LB39UEnWVIR3hpdFQ=
-----END CERTIFICATE-----
