Certificate:
    Data:
        Version: 1 (0x0)
        Serial Number: 3 (0x3)
    Signature Algorithm: md5WithRSAEncryption
        Issuer: OU=MySQLConnectorPython Root CA, CN=MyConnPy Root CA
        Validity
            Not Before: Mar 17 15:50:37 2017 GMT
            Not After : Mar 17 15:50:37 2018 GMT
        Subject: OU=MySQLConnectorPython Client Cert, CN=localhost
        Subject Public Key Info:
            Public Key Algorithm: rsaEncryption
                Public-Key: (2048 bit)
                Modulus:
                    00:b0:7b:da:61:20:7c:13:97:fa:1e:20:83:e0:40:
                    e8:94:4a:ea:1c:62:22:09:4e:d3:cd:30:66:73:28:
                    f4:ff:2d:79:a4:b6:0b:c7:b7:20:c8:f6:c0:98:66:
                    3d:46:ec:f1:8c:04:8b:d7:3c:b4:fa:69:6c:c5:47:
                    1b:04:a4:a3:53:5a:0a:f2:a4:f7:94:d5:2c:d7:b6:
                    24:81:e0:c2:ea:51:d1:6e:8e:d4:58:dc:5b:fc:b9:
                    1b:6b:7c:52:cc:17:36:85:63:ca:f0:1f:75:2f:b8:
                    97:96:d1:08:ab:46:31:31:e6:9c:8b:26:a1:1b:df:
                    35:66:36:d9:ba:e1:a4:3d:88:25:7a:9d:68:d3:62:
                    20:ec:14:b0:59:2c:33:40:11:cf:03:70:17:1c:de:
                    65:ca:0c:2e:26:2d:f0:33:13:52:d7:0f:69:d7:c0:
                    d6:f8:71:03:19:f4:79:3d:66:98:56:d2:44:db:bf:
                    aa:a7:d6:fc:2d:0b:29:63:0a:d4:3d:5e:7e:a7:2c:
                    6c:b8:2f:32:6f:51:ce:4a:2d:6a:35:54:21:33:76:
                    a2:64:4a:8c:1d:30:73:47:3e:90:19:68:c9:07:8f:
                    14:c5:ff:93:c7:ec:b4:08:d7:30:11:f6:67:3f:7a:
                    8a:57:2c:87:63:34:ff:ff:79:2b:6b:70:88:21:ca:
                    4e:53
                Exponent: 65537 (0x10001)
    Signature Algorithm: md5WithRSAEncryption
         2e:d2:37:97:8b:aa:05:47:8d:b4:c6:87:7d:b8:41:d6:55:12:
         84:14:8d:91:de:4f:84:15:89:a2:90:5a:0a:94:a1:c2:41:42:
         18:3c:b7:10:c7:19:b5:01:96:2e:51:83:14:2f:64:0a:96:bb:
         ce:f8:28:df:ab:fe:72:05:e8:6a:fd:1d:7b:09:22:eb:26:e7:
         64:a7:a7:fe:fb:e8:e0:2f:91:e4:9e:fa:f6:ab:0b:5b:f3:82:
         e0:54:d5:07:d2:05:ae:99:fd:22:d8:23:ba:e5:16:21:d7:b0:
         82:98:4a:f0:87:36:ca:1e:4e:c0:c3:6a:22:a4:37:18:5f:6f:
         6f:7b:92:e9:bb:15:77:55:6b:9a:57:35:95:4c:64:e9:bb:12:
         cb:ab:67:4b:23:27:41:d3:71:15:5e:cf:6b:d6:13:05:f0:7a:
         df:0f:f9:fd:bc:0d:8b:e4:cb:e7:62:67:9e:10:00:c9:9d:ea:
         a7:cb:3f:ec:47:04:06:96:7f:b3:74:be:3c:cc:bd:72:05:d8:
         91:b7:d6:b1:9a:40:79:bd:eb:cb:7a:49:bc:a6:e7:61:4f:1d:
         68:79:21:ad:18:f6:13:6e:87:b6:13:a6:31:1e:f9:73:4c:ec:
         04:b4:f2:83:5a:25:ae:9c:2e:8e:3a:0a:1d:0a:fd:34:dd:d4:
         12:cc:4f:47
-----BEGIN CERTIFICATE-----
MIIC9TCCAd0CAQMwDQYJKoZIhvcNAQEEBQAwQjElMCMGA1UECwwcTXlTUUxDb25u
ZWN0b3JQeXRob24gUm9vdCBDQTEZMBcGA1UEAwwQTXlDb25uUHkgUm9vdCBDQTAe
Fw0xNzAzMTcxNTUwMzdaFw0xODAzMTcxNTUwMzdaMD8xKTAnBgNVBAsMIE15U1FM
Q29ubmVjdG9yUHl0aG9uIENsaWVudCBDZXJ0MRIwEAYDVQQDDAlsb2NhbGhvc3Qw
ggEiMA0GCSqGSIb3DQEBAQUAA4IBDwAwggEKAoIBAQCwe9phIHwTl/oeIIPgQOiU
SuocYiIJTtPNMGZzKPT/LXmktgvHtyDI9sCYZj1G7PGMBIvXPLT6aWzFRxsEpKNT
WgrypPeU1SzXtiSB4MLqUdFujtRY3Fv8uRtrfFLMFzaFY8rwH3UvuJeW0QirRjEx
5pyLJqEb3zVmNtm64aQ9iCV6nWjTYiDsFLBZLDNAEc8DcBcc3mXKDC4mLfAzE1LX
D2nXwNb4cQMZ9Hk9ZphW0kTbv6qn1vwtCyljCtQ9Xn6nLGy4LzJvUc5KLWo1VCEz
dqJkSowdMHNHPpAZaMkHjxTF/5PH7LQI1zAR9mc/eopXLIdjNP//eStrcIghyk5T
AgMBAAEwDQYJKoZIhvcNAQEEBQADggEBAC7SN5eLqgVHjbTGh324QdZVEoQUjZHe
T4QViaKQWgqUocJBQhg8txDHGbUBli5RgxQvZAqWu874KN+r/nIF6Gr9HXsJIusm
52Snp/776OAvkeSe+varC1vzguBU1QfSBa6Z/SLYI7rlFiHXsIKYSvCHNsoeTsDD
aiKkNxhfb297kum7FXdVa5pXNZVMZOm7EsurZ0sjJ0HTcRVez2vWEwXwet8P+f28
DYvky+diZ54QAMmd6qfLP+xHBAaWf7N0vjzMvXIF2JG31rGaQHm968t6Sbym52FP
HWh5Ia0Y9hNuh7YTpjEe+XNM7AS08oNaJa6cLo46Ch0K/TTd1BLMT0c=
-----END CERTIFICATE-----
