Certificate:
    Data:
        Version: 1 (0x0)
        Serial Number: 2 (0x2)
        Signature Algorithm: sha256WithRSAEncryption
        Issuer: OU=MySQLConnectorPython Root CA, CN=MyConnPy Root CA
        Validity
            Not Before: Jul 19 16:26:11 2023 GMT
            Not After : Jul 18 16:26:11 2024 GMT
        Subject: OU=MySQLConnectorPython Client Cert, CN=localhost
        Subject Public Key Info:
            Public Key Algorithm: rsaEncryption
                Public-Key: (2048 bit)
                Modulus:
                    00:ae:cd:59:9f:87:82:4e:84:c3:fc:d2:4e:19:71:
                    ed:59:92:50:05:96:4f:7f:ac:87:e8:92:c9:19:5c:
                    54:11:71:cf:b2:dd:e3:24:f4:7b:d4:12:e9:b7:08:
                    78:c3:32:87:a9:ea:29:0b:df:8e:36:0a:61:1f:00:
                    18:08:2a:ed:9d:90:bd:3c:bc:c1:b7:23:91:ca:7d:
                    1d:5b:c9:d9:9b:9b:96:39:ab:ef:48:9e:f4:d8:64:
                    af:a3:8d:15:63:88:8d:7d:9d:75:3e:79:bf:54:6a:
                    b8:60:19:56:33:62:e5:80:fb:08:5c:f5:de:84:ab:
                    f3:73:b0:11:a0:01:a5:e9:5d:44:01:ca:6c:09:6b:
                    ea:87:4e:c6:ad:8a:45:d4:52:0f:66:4d:c6:a7:7d:
                    b9:21:f7:5c:03:03:25:c1:0f:43:40:2d:ef:e4:19:
                    ad:f5:96:aa:d7:92:dc:24:b8:d9:6a:bd:3d:ac:98:
                    c5:6d:d7:6a:8e:32:49:39:78:a4:cb:97:f8:bf:98:
                    03:26:7a:fa:64:8f:6a:3c:19:76:3e:d7:98:27:37:
                    5b:73:9d:9d:ae:f9:8f:71:d3:52:85:ab:bc:c6:f6:
                    2b:dd:da:8f:c8:42:cf:be:6f:36:27:cc:4a:67:33:
                    6f:0e:b8:2b:21:53:06:e0:8d:94:a5:20:5a:9a:af:
                    81:a3
                Exponent: 65537 (0x10001)
    Signature Algorithm: sha256WithRSAEncryption
    Signature Value:
        32:dd:8a:ec:ac:83:e6:b6:24:40:ff:c2:7a:a1:31:22:68:0f:
        57:6f:0f:d1:06:dc:0d:b0:78:e0:67:7e:be:ce:1e:dc:f4:fa:
        83:bc:8a:aa:f2:a0:93:e8:5b:ad:4b:38:3d:b6:55:d0:c5:ee:
        1f:d2:ca:b9:bf:92:20:61:b3:46:94:d9:84:0d:ed:29:b9:ee:
        bc:43:e3:60:f8:02:79:2a:a7:33:06:6a:24:19:17:a0:4d:c0:
        aa:ad:a3:b9:6b:9e:ec:e5:77:de:e0:cf:eb:74:8c:c7:f2:ae:
        ed:1b:dc:5c:92:c4:db:79:50:ba:e8:06:4c:3f:ff:ef:05:7d:
        f2:30:23:67:d7:87:dc:1c:d6:46:25:62:5d:af:bf:9f:cf:b8:
        87:37:0a:cd:58:a0:ce:8c:df:9d:5d:0d:f9:42:09:a2:06:c6:
        4c:6b:5f:2f:00:3a:21:07:05:f6:45:84:32:ca:29:ae:ab:84:
        04:ad:0f:22:41:05:86:4c:80:30:f3:a5:64:59:5b:2a:98:71:
        0f:7d:17:03:26:d5:b2:25:1b:12:94:3f:1b:52:73:1f:a7:06:
        5a:92:d4:29:9e:7a:38:3e:c0:1c:1a:90:23:52:1f:f7:ac:38:
        37:7d:80:72:f2:6c:3a:6f:e8:18:1e:0a:f9:df:37:f8:1b:31:
        77:97:55:c8
-----BEGIN CERTIFICATE-----
MIIC9TCCAd0CAQIwDQYJKoZIhvcNAQELBQAwQjElMCMGA1UECwwcTXlTUUxDb25u
ZWN0b3JQeXRob24gUm9vdCBDQTEZMBcGA1UEAwwQTXlDb25uUHkgUm9vdCBDQTAe
Fw0yMzA3MTkxNjI2MTFaFw0yNDA3MTgxNjI2MTFaMD8xKTAnBgNVBAsMIE15U1FM
Q29ubmVjdG9yUHl0aG9uIENsaWVudCBDZXJ0MRIwEAYDVQQDDAlsb2NhbGhvc3Qw
ggEiMA0GCSqGSIb3DQEBAQUAA4IBDwAwggEKAoIBAQCuzVmfh4JOhMP80k4Zce1Z
klAFlk9/rIfokskZXFQRcc+y3eMk9HvUEum3CHjDMoep6ikL3442CmEfABgIKu2d
kL08vMG3I5HKfR1bydmbm5Y5q+9InvTYZK+jjRVjiI19nXU+eb9UarhgGVYzYuWA
+whc9d6Eq/NzsBGgAaXpXUQBymwJa+qHTsatikXUUg9mTcanfbkh91wDAyXBD0NA
Le/kGa31lqrXktwkuNlqvT2smMVt12qOMkk5eKTLl/i/mAMmevpkj2o8GXY+15gn
N1tznZ2u+Y9x01KFq7zG9ivd2o/IQs++bzYnzEpnM28OuCshUwbgjZSlIFqar4Gj
AgMBAAEwDQYJKoZIhvcNAQELBQADggEBADLdiuysg+a2JED/wnqhMSJoD1dvD9EG
3A2weOBnfr7OHtz0+oO8iqryoJPoW61LOD22VdDF7h/Syrm/kiBhs0aU2YQN7Sm5
7rxD42D4AnkqpzMGaiQZF6BNwKqto7lrnuzld97gz+t0jMfyru0b3FySxNt5ULro
Bkw//+8FffIwI2fXh9wc1kYlYl2vv5/PuIc3Cs1YoM6M351dDflCCaIGxkxrXy8A
OiEHBfZFhDLKKa6rhAStDyJBBYZMgDDzpWRZWyqYcQ99FwMm1bIlGxKUPxtScx+n
BlqS1Cmeejg+wBwakCNSH/esODd9gHLybDpv6BgeCvnfN/gbMXeXVcg=
-----END CERTIFICATE-----
