Certificate:
    Data:
        Version: 1 (0x0)
        Serial Number: 1 (0x1)
        Signature Algorithm: sha256WithRSAEncryption
        Issuer: OU=MySQLConnectorPython Root CA, CN=MyConnPy Root CA
        Validity
            Not Before: Jul  9 08:49:40 2021 GMT
            Not After : Jul  9 08:49:40 2022 GMT
        Subject: OU=MySQLConnectorPython Server Cert, CN=localhost
        Subject Public Key Info:
            Public Key Algorithm: rsaEncryption
                RSA Public-Key: (2048 bit)
                Modulus:
                    00:a1:e8:e7:20:8f:dc:89:8e:3d:99:fd:e1:f6:d9:
                    16:43:46:5d:f2:82:3a:a2:25:71:b7:f5:7c:e6:fc:
                    55:07:ce:d8:22:c3:57:5c:9d:40:32:97:5d:5a:cd:
                    d2:6c:46:23:4a:b2:07:d6:e2:11:ec:72:5b:00:f0:
                    e8:1d:8f:23:d1:42:16:c5:99:bc:d9:8c:f1:a1:22:
                    75:87:c0:21:94:ea:c7:1c:6d:4e:60:40:fc:45:b5:
                    b7:09:a2:dc:51:64:ba:35:d5:4d:17:cf:cb:39:47:
                    a5:dd:02:5c:a6:6c:b8:1c:e4:d4:56:43:53:09:bb:
                    ce:11:bd:4e:34:0a:c8:bd:cf:9d:c9:88:62:c1:d7:
                    ca:36:46:40:ed:23:f5:28:8a:1f:a2:43:45:1a:ca:
                    4b:52:93:49:3a:25:4c:b3:e4:cc:e9:de:5f:d8:1a:
                    6c:be:98:68:05:03:a2:bf:66:5b:27:b3:32:d3:fe:
                    2c:b1:87:9d:9c:3c:c1:03:f9:b7:71:aa:b8:07:e9:
                    36:22:5e:be:bc:89:65:4a:df:5c:a3:1d:ee:50:9b:
                    94:05:a9:5a:1f:ed:63:4b:b1:5b:c3:a2:5a:e8:48:
                    e6:52:5a:ae:01:2f:b5:29:b0:96:e3:c1:a0:63:49:
                    bb:cd:00:8e:5a:12:b8:79:76:ab:ac:b9:da:43:e9:
                    ae:03
                Exponent: 65537 (0x10001)
    Signature Algorithm: sha256WithRSAEncryption
         db:6b:5f:ae:f4:05:e5:07:93:ae:13:2d:bd:30:98:50:3d:6d:
         63:c5:ab:47:71:fc:39:c3:1a:75:6d:de:0b:14:af:e1:a0:fb:
         a4:bd:88:a9:ea:09:9e:36:9e:09:7d:07:93:71:62:76:2c:9e:
         1a:e6:e3:ab:1e:5a:bc:99:dd:d6:a3:0c:18:31:b2:38:5f:b4:
         81:ad:4d:d5:1b:3a:0e:1c:fb:51:3c:63:2c:c7:00:06:74:75:
         93:cd:65:cf:f3:81:ad:f7:ec:d8:33:9f:a8:06:2c:22:cf:59:
         22:29:2f:80:af:5f:e9:86:48:c5:97:8f:9e:23:65:93:ff:82:
         6f:32:64:c1:fe:19:e2:1e:66:66:b6:be:94:91:ed:df:59:66:
         8b:53:c9:35:d8:cf:b2:0b:17:43:31:35:d0:0f:1e:99:76:92:
         c3:34:e7:43:8f:82:5f:ba:85:a1:62:75:81:23:6f:8c:1b:f3:
         86:0f:9e:53:fa:5c:25:fa:17:48:b2:99:3f:86:7e:6a:c1:bf:
         c2:c2:b9:d3:71:93:c3:c0:51:fd:c4:2f:2d:c2:0d:3f:b7:9b:
         d9:fb:d1:2e:51:98:1d:93:85:59:5c:e9:4e:1d:40:a5:88:ee:
         18:3b:4a:ea:fd:6c:69:97:ff:83:87:f1:d3:d0:87:3e:f7:82:
         ec:0b:63:65
-----BEGIN CERTIFICATE-----
MIIC9TCCAd0CAQEwDQYJKoZIhvcNAQELBQAwQjElMCMGA1UECwwcTXlTUUxDb25u
ZWN0b3JQeXRob24gUm9vdCBDQTEZMBcGA1UEAwwQTXlDb25uUHkgUm9vdCBDQTAe
Fw0yMTA3MDkwODQ5NDBaFw0yMjA3MDkwODQ5NDBaMD8xKTAnBgNVBAsMIE15U1FM
Q29ubmVjdG9yUHl0aG9uIFNlcnZlciBDZXJ0MRIwEAYDVQQDDAlsb2NhbGhvc3Qw
ggEiMA0GCSqGSIb3DQEBAQUAA4IBDwAwggEKAoIBAQCh6Ocgj9yJjj2Z/eH22RZD
Rl3ygjqiJXG39Xzm/FUHztgiw1dcnUAyl11azdJsRiNKsgfW4hHsclsA8OgdjyPR
QhbFmbzZjPGhInWHwCGU6sccbU5gQPxFtbcJotxRZLo11U0Xz8s5R6XdAlymbLgc
5NRWQ1MJu84RvU40Csi9z53JiGLB18o2RkDtI/Uoih+iQ0UayktSk0k6JUyz5Mzp
3l/YGmy+mGgFA6K/ZlsnszLT/iyxh52cPMED+bdxqrgH6TYiXr68iWVK31yjHe5Q
m5QFqVof7WNLsVvDolroSOZSWq4BL7UpsJbjwaBjSbvNAI5aErh5dqusudpD6a4D
AgMBAAEwDQYJKoZIhvcNAQELBQADggEBANtrX670BeUHk64TLb0wmFA9bWPFq0dx
/DnDGnVt3gsUr+Gg+6S9iKnqCZ42ngl9B5NxYnYsnhrm46seWryZ3dajDBgxsjhf
tIGtTdUbOg4c+1E8YyzHAAZ0dZPNZc/zga337Ngzn6gGLCLPWSIpL4CvX+mGSMWX
j54jZZP/gm8yZMH+GeIeZma2vpSR7d9ZZotTyTXYz7ILF0MxNdAPHpl2ksM050OP
gl+6haFidYEjb4wb84YPnlP6XCX6F0iymT+GfmrBv8LCudNxk8PAUf3ELy3CDT+3
m9n70S5RmB2ThVlc6U4dQKWI7hg7Sur9bGmX/4OH8dPQhz73guwLY2U=
-----END CERTIFICATE-----
