Certificate:
    Data:
        Version: 1 (0x0)
        Serial Number: 2 (0x2)
    Signature Algorithm: md5WithRSAEncryption
        Issuer: OU=MySQLConnectorPython Root CA, CN=MyConnPy Root CA
        Validity
            Not Before: Aug 15 08:00:00 2012 GMT
            Not After : Aug 15 09:00:00 2012 GMT
        Subject: OU=MySQLConnectorPython Expired Server Cert, CN=localhost
        Subject Public Key Info:
            Public Key Algorithm: rsaEncryption
                Public-Key: (2048 bit)
                Modulus:
                    00:df:5a:5b:72:42:5f:46:e5:bb:6c:e5:76:2e:6f:
                    fd:b8:10:2f:04:10:55:43:0c:bf:af:f1:eb:f0:4f:
                    6f:6b:d9:61:9f:2a:39:35:2d:cc:0c:05:5c:88:cc:
                    98:a3:5c:78:9e:8c:6b:ba:33:3f:f2:46:96:f2:bb:
                    78:63:ca:bd:72:2c:70:34:56:8b:12:e5:e9:ff:82:
                    d5:50:bb:28:c2:99:83:af:3f:f1:67:77:b4:41:66:
                    79:ee:f7:3a:93:8c:55:da:c3:d5:3a:44:40:82:e8:
                    fa:4c:11:a7:13:20:31:78:48:1d:2e:95:8c:0f:4c:
                    ea:ac:96:9d:9e:2a:37:c5:7a:42:f2:b1:8f:9b:15:
                    69:9d:1c:19:26:69:84:a9:c6:9e:08:65:c0:7c:bf:
                    72:a7:b0:ae:60:78:ad:7d:ea:0b:ed:ff:45:fc:24:
                    56:f5:c6:f4:b5:00:0f:90:76:3e:52:08:ec:06:c4:
                    30:51:66:60:f9:c6:0b:b9:f2:96:6a:c2:39:b8:b7:
                    48:b8:3f:02:26:b5:95:f8:55:8d:d3:23:f1:dc:d0:
                    ab:2c:05:3b:b5:99:4d:9a:81:78:27:60:0d:da:2e:
                    23:e8:38:26:0b:6d:6c:f6:fd:a7:42:95:4c:d2:a5:
                    7c:05:13:21:7b:c7:6d:ca:f1:e3:3d:ad:d4:32:79:
                    5a:d3
                Exponent: 65537 (0x10001)
    Signature Algorithm: md5WithRSAEncryption
         36:e4:ba:6c:3b:99:29:ba:33:8b:da:ef:07:b8:7e:f6:07:b6:
         79:7b:c7:b2:0c:0c:48:ff:52:25:05:34:f4:d9:f6:0a:0c:77:
         10:a7:e5:40:f4:47:bf:4c:06:7b:8a:22:53:5a:91:dd:75:32:
         d3:58:97:4f:d4:01:e8:b5:8d:ca:52:23:7f:72:1b:e2:c5:9a:
         89:a4:be:e4:17:9b:fa:1f:c0:26:93:5f:c2:d2:1b:e0:c2:9e:
         36:d1:3f:95:bd:6f:af:cd:f3:8f:6a:c6:5c:b0:6b:ae:07:60:
         59:be:fa:fd:f8:43:5b:20:38:02:b8:a6:f5:eb:35:be:46:55:
         7b:84:9f:e5:cb:5d:6b:af:2a:28:d1:af:32:1f:e3:71:d8:f8:
         96:4a:f1:88:f3:10:27:ed:c5:a2:65:f4:b5:2b:58:77:93:25:
         e7:36:e1:4b:cb:18:10:cd:81:fc:80:e6:24:0f:27:4c:33:22:
         af:36:88:ee:f8:0d:ef:ff:47:74:87:50:e8:ea:03:da:71:a1:
         65:fd:00:8c:c8:a8:27:fa:e0:40:43:60:8f:aa:1f:25:4f:05:
         d7:a5:fe:9b:a3:82:90:0b:50:bf:bd:62:a3:9e:14:20:80:18:
         8b:8c:5e:f7:97:b8:b7:a5:63:d8:22:1a:98:6c:32:da:38:7b:
         fc:e6:2c:f3
-----BEGIN CERTIFICATE-----
MIIC/TCCAeUCAQIwDQYJKoZIhvcNAQEEBQAwQjElMCMGA1UECwwcTXlTUUxDb25u
ZWN0b3JQeXRob24gUm9vdCBDQTEZMBcGA1UEAwwQTXlDb25uUHkgUm9vdCBDQTAe
Fw0xMjA4MTUwODAwMDBaFw0xMjA4MTUwOTAwMDBaMEcxMTAvBgNVBAsMKE15U1FM
Q29ubmVjdG9yUHl0aG9uIEV4cGlyZWQgU2VydmVyIENlcnQxEjAQBgNVBAMMCWxv
Y2FsaG9zdDCCASIwDQYJKoZIhvcNAQEBBQADggEPADCCAQoCggEBAN9aW3JCX0bl
u2zldi5v/bgQLwQQVUMMv6/x6/BPb2vZYZ8qOTUtzAwFXIjMmKNceJ6Ma7ozP/JG
lvK7eGPKvXIscDRWixLl6f+C1VC7KMKZg68/8Wd3tEFmee73OpOMVdrD1TpEQILo
+kwRpxMgMXhIHS6VjA9M6qyWnZ4qN8V6QvKxj5sVaZ0cGSZphKnGnghlwHy/cqew
rmB4rX3qC+3/RfwkVvXG9LUAD5B2PlII7AbEMFFmYPnGC7nylmrCObi3SLg/Aia1
lfhVjdMj8dzQqywFO7WZTZqBeCdgDdouI+g4JgttbPb9p0KVTNKlfAUTIXvHbcrx
4z2t1DJ5WtMCAwEAATANBgkqhkiG9w0BAQQFAAOCAQEANuS6bDuZKbozi9rvB7h+
9ge2eXvHsgwMSP9SJQU09Nn2Cgx3EKflQPRHv0wGe4oiU1qR3XUy01iXT9QB6LWN
ylIjf3Ib4sWaiaS+5Beb+h/AJpNfwtIb4MKeNtE/lb1vr83zj2rGXLBrrgdgWb76
/fhDWyA4Arim9es1vkZVe4Sf5ctda68qKNGvMh/jcdj4lkrxiPMQJ+3FomX0tStY
d5Ml5zbhS8sYEM2B/IDmJA8nTDMirzaI7vgN7/9HdIdQ6OoD2nGhZf0AjMioJ/rg
QENgj6ofJU8F16X+m6OCkAtQv71io54UIIAYi4xe95e4t6Vj2CIamGwy2jh7/OYs
8w==
-----END CERTIFICATE-----
