Certificate:
    Data:
        Version: 1 (0x0)
        Serial Number: 1 (0x1)
    Signature Algorithm: md5WithRSAEncryption
        Issuer: OU=MySQLConnectorPython Root CA, CN=MyConnPy Root CA
        Validity
            Not Before: Mar 17 15:50:37 2017 GMT
            Not After : Mar 17 15:50:37 2018 GMT
        Subject: OU=MySQLConnectorPython Server Cert, CN=localhost
        Subject Public Key Info:
            Public Key Algorithm: rsaEncryption
                Public-Key: (2048 bit)
                Modulus:
                    00:a3:0d:e6:bd:d7:5e:1e:0f:b2:0a:83:43:50:fe:
                    7c:bc:32:dc:04:fd:38:97:86:1e:e0:9c:46:08:65:
                    ac:76:6f:0d:93:33:31:4e:02:8a:a7:e9:9a:b9:4f:
                    f9:d3:66:56:29:1a:e5:0f:df:7b:61:e5:3c:06:db:
                    ea:cd:d6:71:9d:63:b2:f9:e1:c1:ed:9a:6e:2f:2f:
                    be:94:76:aa:ee:24:b3:58:f0:82:25:00:ef:c8:19:
                    4f:15:6f:f2:3b:b4:e4:9b:0d:36:c7:17:39:7d:35:
                    45:e8:76:62:94:19:ab:64:d8:89:78:75:92:29:e2:
                    35:79:dd:e1:bf:3f:52:bf:ef:4c:d1:c1:fc:d0:a6:
                    ee:b8:01:39:26:28:67:40:73:46:5e:55:65:3b:56:
                    c9:c0:e1:7a:a4:a1:0c:46:d2:1e:b3:af:c5:cc:5b:
                    07:81:79:c5:d0:44:57:ed:ea:ad:d9:c2:45:70:72:
                    46:d3:e2:a3:f4:d0:49:33:ac:66:89:9b:83:65:f9:
                    92:07:4e:9c:bf:b0:59:90:f8:35:8f:19:d2:82:d7:
                    49:46:f5:4b:6a:c0:bd:5c:5d:0f:a0:fb:29:15:a7:
                    68:5e:e1:48:20:c8:14:eb:fc:17:29:d6:95:4a:27:
                    70:f3:c3:52:3d:1c:a5:d4:cf:3c:87:81:d7:d9:bb:
                    dc:49
                Exponent: 65537 (0x10001)
    Signature Algorithm: md5WithRSAEncryption
         36:58:2f:f4:95:e6:8b:ef:5b:59:91:2e:31:c2:21:64:b7:ac:
         e6:bf:4e:b7:12:06:7d:8b:74:eb:82:88:65:00:4c:12:5e:6b:
         dd:8b:d5:5e:cd:74:92:8a:dd:eb:fb:5b:1d:46:b0:e4:7d:55:
         1a:01:9a:82:0c:4d:91:05:e2:92:f5:17:0f:a5:8b:d9:8e:8f:
         17:55:19:83:07:2b:ea:2b:16:15:30:f7:31:7e:84:cc:b7:e0:
         b1:b1:53:5d:e9:40:87:19:98:d5:f8:eb:ae:ef:b4:e7:85:12:
         38:e7:12:f4:44:03:08:a6:fc:3b:aa:26:1c:52:95:e0:7b:93:
         92:00:e2:21:b8:09:00:7d:e5:08:b4:c8:53:1d:2c:11:ea:86:
         5c:f9:14:c6:3f:73:0a:bc:e7:96:cb:e9:39:23:d7:50:0f:7d:
         2e:04:be:e9:5b:0b:bf:99:85:8c:ed:32:14:1d:09:c5:d5:d1:
         e6:db:f2:54:51:3f:5f:0e:e0:06:58:c8:52:68:4e:39:25:bd:
         b5:1b:8b:b2:1d:95:cb:cb:22:18:b5:d7:27:3d:32:c4:79:c4:
         fa:e1:6f:00:1c:63:da:4a:ce:9e:de:0c:a4:dd:bd:d3:d6:cb:
         51:d7:e6:32:5f:5f:31:1f:a5:9d:5f:d5:2c:21:72:a7:ed:f1:
         d8:31:c8:b4
-----BEGIN CERTIFICATE-----
MIIC9TCCAd0CAQEwDQYJKoZIhvcNAQEEBQAwQjElMCMGA1UECwwcTXlTUUxDb25u
ZWN0b3JQeXRob24gUm9vdCBDQTEZMBcGA1UEAwwQTXlDb25uUHkgUm9vdCBDQTAe
Fw0xNzAzMTcxNTUwMzdaFw0xODAzMTcxNTUwMzdaMD8xKTAnBgNVBAsMIE15U1FM
Q29ubmVjdG9yUHl0aG9uIFNlcnZlciBDZXJ0MRIwEAYDVQQDDAlsb2NhbGhvc3Qw
ggEiMA0GCSqGSIb3DQEBAQUAA4IBDwAwggEKAoIBAQCjDea9114eD7IKg0NQ/ny8
MtwE/TiXhh7gnEYIZax2bw2TMzFOAoqn6Zq5T/nTZlYpGuUP33th5TwG2+rN1nGd
Y7L54cHtmm4vL76UdqruJLNY8IIlAO/IGU8Vb/I7tOSbDTbHFzl9NUXodmKUGatk
2Il4dZIp4jV53eG/P1K/70zRwfzQpu64ATkmKGdAc0ZeVWU7VsnA4XqkoQxG0h6z
r8XMWweBecXQRFft6q3ZwkVwckbT4qP00EkzrGaJm4Nl+ZIHTpy/sFmQ+DWPGdKC
10lG9UtqwL1cXQ+g+ykVp2he4UggyBTr/Bcp1pVKJ3Dzw1I9HKXUzzyHgdfZu9xJ
AgMBAAEwDQYJKoZIhvcNAQEEBQADggEBADZYL/SV5ovvW1mRLjHCIWS3rOa/TrcS
Bn2LdOuCiGUATBJea92L1V7NdJKK3ev7Wx1GsOR9VRoBmoIMTZEF4pL1Fw+li9mO
jxdVGYMHK+orFhUw9zF+hMy34LGxU13pQIcZmNX4667vtOeFEjjnEvREAwim/Duq
JhxSleB7k5IA4iG4CQB95Qi0yFMdLBHqhlz5FMY/cwq855bL6Tkj11APfS4Evulb
C7+ZhYztMhQdCcXV0ebb8lRRP18O4AZYyFJoTjklvbUbi7IdlcvLIhi11yc9MsR5
xPrhbwAcY9pKzp7eDKTdvdPWy1HX5jJfXzEfpZ1f1Swhcqft8dgxyLQ=
-----END CERTIFICATE-----
