Certificate:
    Data:
        Version: 1 (0x0)
        Serial Number: 2 (0x2)
        Signature Algorithm: sha256WithRSAEncryption
        Issuer: OU=MySQLConnectorPython Root CA, CN=MyConnPy Root CA
        Validity
            Not Before: Jul  9 08:49:40 2021 GMT
            Not After : Jul  9 08:49:40 2022 GMT
        Subject: OU=MySQLConnectorPython Client Cert, CN=localhost
        Subject Public Key Info:
            Public Key Algorithm: rsaEncryption
                RSA Public-Key: (2048 bit)
                Modulus:
                    00:c9:c3:d2:17:53:52:b9:50:e1:66:ac:33:6c:19:
                    4c:f4:c0:7b:29:c4:65:7d:ab:ed:3d:bf:d7:42:dd:
                    6c:ac:27:36:57:9b:1e:bd:e0:a6:c3:e0:21:f5:1f:
                    ee:8b:c6:40:60:da:35:ef:20:12:bd:96:53:9d:2c:
                    01:d8:ad:c9:e1:6c:d1:58:dc:9a:10:bc:54:3f:49:
                    38:2d:c8:21:c2:4d:b2:c8:de:24:db:8b:82:2f:09:
                    34:35:3e:ae:0a:21:40:8c:63:bd:b8:b1:1e:a3:c4:
                    46:27:81:41:f5:81:72:c0:c7:3e:c2:c1:36:17:86:
                    2d:ce:95:ae:17:19:df:85:9b:06:d8:1a:7b:d8:49:
                    7c:5c:49:ff:23:24:f5:c6:90:0e:a9:b7:62:e7:45:
                    ae:83:57:ed:9c:00:3d:48:1c:69:03:71:3f:1b:9c:
                    b9:df:0a:5c:5e:11:ee:76:2e:17:3c:e7:39:72:4e:
                    b1:e8:ae:47:e9:8a:7f:df:4c:31:ac:1c:9f:84:4a:
                    4d:11:a2:fb:af:e6:97:0f:a7:07:a0:6b:69:60:f5:
                    da:e5:a1:09:26:76:d1:cf:00:fe:43:0d:76:d5:29:
                    57:b2:3f:d1:79:09:11:84:3f:ed:81:e9:d6:52:d7:
                    34:06:83:19:c3:b6:57:2f:b8:57:77:3f:c8:1a:e9:
                    2d:c1
                Exponent: 65537 (0x10001)
    Signature Algorithm: sha256WithRSAEncryption
         60:d7:73:df:5f:3a:b8:9c:17:f7:63:0f:45:77:04:e9:a9:5a:
         64:98:b8:1d:51:35:6e:f7:91:08:89:c6:b5:70:2d:85:96:03:
         d1:79:d9:14:ed:26:ef:7f:3e:bb:24:27:57:6c:88:65:a8:b0:
         69:be:73:95:b3:94:a9:98:5f:7e:6a:39:27:be:19:06:a9:51:
         e2:69:3e:78:92:73:83:ba:c1:01:0a:46:3c:f6:10:8e:fc:2f:
         f4:e1:1f:51:b3:2c:78:f2:cf:eb:b9:bc:1c:e5:b8:13:66:36:
         52:0a:93:14:12:8e:69:96:b5:f8:21:c4:7c:79:52:27:5d:31:
         18:0b:b0:ef:65:9b:60:92:73:6a:ef:74:b4:d6:b2:54:8a:45:
         1c:6b:b7:09:b8:07:cb:64:e7:e2:a1:73:67:a7:ca:ea:3b:60:
         58:4a:56:2d:bb:29:62:af:20:5d:7e:7b:e2:fb:d5:00:76:f9:
         b8:f7:9f:06:94:a6:db:56:22:a1:18:5a:da:35:59:cb:1d:32:
         bb:a3:7f:d8:4e:b1:32:b2:2d:01:25:27:56:2e:29:e1:83:b7:
         96:23:98:11:ee:95:8e:5c:ae:84:2d:76:45:85:4e:b9:87:43:
         ae:cd:b3:d3:0b:b8:9a:24:cb:49:be:39:85:41:f2:c3:9c:b9:
         72:87:64:21
-----BEGIN CERTIFICATE-----
MIIC9TCCAd0CAQIwDQYJKoZIhvcNAQELBQAwQjElMCMGA1UECwwcTXlTUUxDb25u
ZWN0b3JQeXRob24gUm9vdCBDQTEZMBcGA1UEAwwQTXlDb25uUHkgUm9vdCBDQTAe
Fw0yMTA3MDkwODQ5NDBaFw0yMjA3MDkwODQ5NDBaMD8xKTAnBgNVBAsMIE15U1FM
Q29ubmVjdG9yUHl0aG9uIENsaWVudCBDZXJ0MRIwEAYDVQQDDAlsb2NhbGhvc3Qw
ggEiMA0GCSqGSIb3DQEBAQUAA4IBDwAwggEKAoIBAQDJw9IXU1K5UOFmrDNsGUz0
wHspxGV9q+09v9dC3WysJzZXmx694KbD4CH1H+6LxkBg2jXvIBK9llOdLAHYrcnh
bNFY3JoQvFQ/STgtyCHCTbLI3iTbi4IvCTQ1Pq4KIUCMY724sR6jxEYngUH1gXLA
xz7CwTYXhi3Ola4XGd+FmwbYGnvYSXxcSf8jJPXGkA6pt2LnRa6DV+2cAD1IHGkD
cT8bnLnfClxeEe52Lhc85zlyTrHorkfpin/fTDGsHJ+ESk0Rovuv5pcPpwega2lg
9drloQkmdtHPAP5DDXbVKVeyP9F5CRGEP+2B6dZS1zQGgxnDtlcvuFd3P8ga6S3B
AgMBAAEwDQYJKoZIhvcNAQELBQADggEBAGDXc99fOricF/djD0V3BOmpWmSYuB1R
NW73kQiJxrVwLYWWA9F52RTtJu9/PrskJ1dsiGWosGm+c5WzlKmYX35qOSe+GQap
UeJpPniSc4O6wQEKRjz2EI78L/ThH1GzLHjyz+u5vBzluBNmNlIKkxQSjmmWtfgh
xHx5UiddMRgLsO9lm2CSc2rvdLTWslSKRRxrtwm4B8tk5+Khc2enyuo7YFhKVi27
KWKvIF1+e+L71QB2+bj3nwaUpttWIqEYWto1WcsdMrujf9hOsTKyLQElJ1YuKeGD
t5YjmBHulY5croQtdkWFTrmHQ67Ns9MLuJoky0m+OYVB8sOcuXKHZCE=
-----END CERTIFICATE-----
