Certificate:
    Data:
        Version: 1 (0x0)
        Serial Number: 2 (0x2)
    Signature Algorithm: sha256WithRSAEncryption
        Issuer: OU=MySQLConnectorPython Root CA, CN=MyConnPy Root CA
        Validity
            Not Before: Jul  5 19:29:19 2018 GMT
            Not After : Jul  5 19:29:19 2019 GMT
        Subject: OU=MySQLConnectorPython Client Cert, CN=localhost
        Subject Public Key Info:
            Public Key Algorithm: rsaEncryption
                Public-Key: (2048 bit)
                Modulus:
                    00:e0:4d:53:b3:c1:e7:87:6d:52:c7:e8:7f:f5:a2:
                    17:a5:8d:14:ee:cd:c6:34:bc:3e:7e:c0:38:ed:77:
                    58:87:57:0e:a2:84:a4:53:10:9c:09:fb:39:45:a4:
                    f2:e2:88:0f:29:da:4a:f8:80:cc:c3:61:57:0d:76:
                    64:65:10:2d:a0:68:4c:2a:43:1f:c3:65:6f:d4:e9:
                    70:83:df:ad:49:5d:1f:38:73:9f:5a:30:f2:d8:fc:
                    13:f3:e1:98:e3:f2:0d:b3:e3:e8:a7:94:cf:fb:cc:
                    c4:c6:59:bc:8e:68:07:8c:1a:28:37:ec:1d:cb:89:
                    2b:99:82:3d:7f:27:96:82:1d:70:b1:73:d3:8f:bb:
                    40:33:3e:4a:7e:42:fd:31:fc:ff:08:a7:6b:60:c9:
                    bd:21:f6:b6:f7:85:10:50:ae:6b:27:b7:6c:39:61:
                    b6:3c:a5:f6:97:d2:62:38:02:0d:d9:fd:e1:72:f6:
                    eb:6a:5a:50:67:d5:64:83:be:7d:e6:7c:ea:0a:34:
                    be:56:04:61:4e:df:1e:00:e2:e2:45:34:51:d1:fd:
                    f7:ba:95:e0:f8:f3:88:4d:15:fd:d0:d3:02:2d:af:
                    a6:c5:99:2f:87:49:2c:96:11:11:a6:06:f2:fd:69:
                    52:ad:20:37:3c:d2:80:86:d3:3e:17:28:c5:b0:6c:
                    19:c3
                Exponent: 65537 (0x10001)
    Signature Algorithm: sha256WithRSAEncryption
         8f:74:49:52:4c:11:4d:19:3b:cf:b2:b2:2f:31:6f:2c:ca:5e:
         c1:3f:07:18:a2:2e:77:1c:70:bc:c0:4f:7d:f1:44:18:2c:4d:
         c4:d3:7a:42:7d:8c:2f:96:f6:96:0f:2d:47:c9:51:7f:e4:9b:
         56:ba:36:64:e2:03:33:7e:73:d5:2e:cc:25:17:14:d1:4f:cb:
         9a:89:60:fb:0f:61:39:7f:b7:55:f5:5f:c1:93:dd:df:ea:26:
         7e:4d:17:45:34:d4:96:fd:67:31:dd:0a:3a:a9:78:ca:0b:23:
         34:76:24:42:5c:71:d6:11:fb:81:e6:e2:aa:b6:4b:3a:b6:d0:
         10:f0:fd:bb:d1:7d:25:8d:cc:21:f5:8b:52:a4:8f:77:ed:4c:
         33:95:65:0e:b3:03:65:9e:6e:d9:7b:7a:66:ce:a2:86:c4:d8:
         62:09:bd:8f:57:43:f2:68:9e:4a:2d:71:7e:b0:20:e9:80:1b:
         b6:f0:5d:37:82:2a:24:18:cc:f1:5c:5a:83:93:61:55:b0:c1:
         d5:5a:7c:fe:da:c1:de:b3:4a:3b:ba:6e:a9:9c:29:fd:a3:23:
         e6:ab:0b:fb:7f:b7:32:c6:34:00:52:f0:a3:23:a9:ac:34:70:
         2c:93:dc:52:e3:cc:9e:47:08:2d:78:92:23:95:03:5c:bf:c0:
         de:01:fc:2a
-----BEGIN CERTIFICATE-----
MIIC9TCCAd0CAQIwDQYJKoZIhvcNAQELBQAwQjElMCMGA1UECwwcTXlTUUxDb25u
ZWN0b3JQeXRob24gUm9vdCBDQTEZMBcGA1UEAwwQTXlDb25uUHkgUm9vdCBDQTAe
Fw0xODA3MDUxOTI5MTlaFw0xOTA3MDUxOTI5MTlaMD8xKTAnBgNVBAsMIE15U1FM
Q29ubmVjdG9yUHl0aG9uIENsaWVudCBDZXJ0MRIwEAYDVQQDDAlsb2NhbGhvc3Qw
ggEiMA0GCSqGSIb3DQEBAQUAA4IBDwAwggEKAoIBAQDgTVOzweeHbVLH6H/1ohel
jRTuzcY0vD5+wDjtd1iHVw6ihKRTEJwJ+zlFpPLiiA8p2kr4gMzDYVcNdmRlEC2g
aEwqQx/DZW/U6XCD361JXR84c59aMPLY/BPz4Zjj8g2z4+inlM/7zMTGWbyOaAeM
Gig37B3LiSuZgj1/J5aCHXCxc9OPu0AzPkp+Qv0x/P8Ip2tgyb0h9rb3hRBQrmsn
t2w5YbY8pfaX0mI4Ag3Z/eFy9utqWlBn1WSDvn3mfOoKNL5WBGFO3x4A4uJFNFHR
/fe6leD484hNFf3Q0wItr6bFmS+HSSyWERGmBvL9aVKtIDc80oCG0z4XKMWwbBnD
AgMBAAEwDQYJKoZIhvcNAQELBQADggEBAI90SVJMEU0ZO8+ysi8xbyzKXsE/Bxii
LncccLzAT33xRBgsTcTTekJ9jC+W9pYPLUfJUX/km1a6NmTiAzN+c9UuzCUXFNFP
y5qJYPsPYTl/t1X1X8GT3d/qJn5NF0U01Jb9ZzHdCjqpeMoLIzR2JEJccdYR+4Hm
4qq2Szq20BDw/bvRfSWNzCH1i1Kkj3ftTDOVZQ6zA2Webtl7embOoobE2GIJvY9X
Q/JonkotcX6wIOmAG7bwXTeCKiQYzPFcWoOTYVWwwdVafP7awd6zSju6bqmcKf2j
I+arC/t/tzLGNABS8KMjqaw0cCyT3FLjzJ5HCC14kiOVA1y/wN4B/Co=
-----END CERTIFICATE-----
