Certificate:
    Data:
        Version: 1 (0x0)
        Serial Number: 2 (0x2)
        Signature Algorithm: sha256WithRSAEncryption
        Issuer: OU=MySQLConnectorPython Root CA, CN=MyConnPy Root CA
        Validity
            Not Before: Jul  8 11:40:42 2019 GMT
            Not After : Jul  7 11:40:42 2020 GMT
        Subject: OU=MySQLConnectorPython Client Cert, CN=localhost
        Subject Public Key Info:
            Public Key Algorithm: rsaEncryption
                RSA Public-Key: (2048 bit)
                Modulus:
                    00:da:0a:5a:85:10:b1:dc:c5:84:0c:b2:0f:13:e6:
                    19:c2:08:72:95:65:1e:c8:3c:e5:23:f9:1a:1c:b5:
                    ff:e5:98:6b:d5:63:4b:16:5c:5a:f8:d8:e5:e1:14:
                    1b:e0:1f:63:49:f6:56:51:94:48:a8:74:7e:68:3e:
                    ec:8a:94:2b:56:c1:5d:d6:bf:92:c2:06:66:80:44:
                    d9:9a:d4:99:ee:de:ed:c1:22:bb:ce:ea:8c:96:f3:
                    a9:03:90:b1:6b:11:ab:01:67:37:4e:1a:03:42:ad:
                    c2:53:b3:06:80:fb:cf:5c:19:f6:80:d7:65:c7:92:
                    36:c2:89:28:86:85:84:8d:1e:08:1e:c7:62:76:20:
                    27:09:00:9e:43:03:cd:9f:4a:a1:39:24:4d:4f:20:
                    2d:66:0c:5f:d6:a5:97:54:e2:ea:60:39:1e:56:96:
                    58:f2:70:3d:93:f2:bd:31:60:21:b4:5d:e7:de:cb:
                    87:4b:43:18:df:ea:6e:e4:db:66:dd:61:87:be:97:
                    ca:3a:6a:d8:7f:fa:23:3c:48:9f:5e:f2:a3:37:c9:
                    b9:da:cc:62:54:3f:f9:29:e8:a7:56:69:56:f6:2f:
                    27:d4:de:22:5d:4f:bc:87:fa:15:f8:f1:a3:1a:1e:
                    64:d9:f8:7e:57:b3:07:c4:e2:22:09:4c:5a:ca:fd:
                    9d:61
                Exponent: 65537 (0x10001)
    Signature Algorithm: sha256WithRSAEncryption
         c4:30:4b:39:a2:ea:11:c8:9f:d9:a3:59:37:c7:fe:ea:15:72:
         be:57:d3:84:31:7f:36:ff:43:84:ed:0c:01:ea:4a:b4:c3:70:
         08:fb:85:ce:6b:41:92:61:d1:14:8d:25:5c:e7:80:42:ff:ef:
         87:12:5c:11:50:2c:0c:07:77:cc:0b:67:81:b4:f4:19:4f:ad:
         09:4c:51:93:aa:f3:55:59:92:0a:8d:60:6b:d4:bc:d3:a5:b4:
         ef:eb:9d:54:fb:73:02:b6:c9:b6:4c:36:f6:96:0b:0a:71:7d:
         4e:1e:02:8b:0f:38:7e:3f:66:00:f4:0f:3d:41:44:a7:c0:02:
         a4:d2:76:0f:a5:4c:93:05:3c:1c:7d:70:72:88:0a:e9:d4:d1:
         df:43:82:b0:a3:c0:69:0e:8d:2d:da:ab:0a:8c:e4:0b:fa:33:
         dd:2a:cd:9a:92:ec:70:78:34:42:e7:13:62:2e:98:0c:75:2d:
         32:47:9d:d1:d5:74:c3:1d:9f:e3:f5:30:5e:30:19:b2:cc:18:
         42:13:76:d3:1d:74:9e:f9:e7:f8:24:86:d9:92:16:de:cd:ae:
         2d:09:29:4a:5c:02:6f:f8:44:53:0f:e5:f3:34:fa:70:63:f2:
         ec:78:25:77:3e:7a:a4:0c:3f:8b:47:42:36:4e:73:ae:7c:e1:
         4b:b4:65:1f
-----BEGIN CERTIFICATE-----
MIIC9TCCAd0CAQIwDQYJKoZIhvcNAQELBQAwQjElMCMGA1UECwwcTXlTUUxDb25u
ZWN0b3JQeXRob24gUm9vdCBDQTEZMBcGA1UEAwwQTXlDb25uUHkgUm9vdCBDQTAe
Fw0xOTA3MDgxMTQwNDJaFw0yMDA3MDcxMTQwNDJaMD8xKTAnBgNVBAsMIE15U1FM
Q29ubmVjdG9yUHl0aG9uIENsaWVudCBDZXJ0MRIwEAYDVQQDDAlsb2NhbGhvc3Qw
ggEiMA0GCSqGSIb3DQEBAQUAA4IBDwAwggEKAoIBAQDaClqFELHcxYQMsg8T5hnC
CHKVZR7IPOUj+Roctf/lmGvVY0sWXFr42OXhFBvgH2NJ9lZRlEiodH5oPuyKlCtW
wV3Wv5LCBmaARNma1Jnu3u3BIrvO6oyW86kDkLFrEasBZzdOGgNCrcJTswaA+89c
GfaA12XHkjbCiSiGhYSNHggex2J2ICcJAJ5DA82fSqE5JE1PIC1mDF/WpZdU4upg
OR5WlljycD2T8r0xYCG0Xefey4dLQxjf6m7k22bdYYe+l8o6ath/+iM8SJ9e8qM3
ybnazGJUP/kp6KdWaVb2LyfU3iJdT7yH+hX48aMaHmTZ+H5XswfE4iIJTFrK/Z1h
AgMBAAEwDQYJKoZIhvcNAQELBQADggEBAMQwSzmi6hHIn9mjWTfH/uoVcr5X04Qx
fzb/Q4TtDAHqSrTDcAj7hc5rQZJh0RSNJVzngEL/74cSXBFQLAwHd8wLZ4G09BlP
rQlMUZOq81VZkgqNYGvUvNOltO/rnVT7cwK2ybZMNvaWCwpxfU4eAosPOH4/ZgD0
Dz1BRKfAAqTSdg+lTJMFPBx9cHKICunU0d9DgrCjwGkOjS3aqwqM5Av6M90qzZqS
7HB4NELnE2IumAx1LTJHndHVdMMdn+P1MF4wGbLMGEITdtMddJ755/gkhtmSFt7N
ri0JKUpcAm/4RFMP5fM0+nBj8ux4JXc+eqQMP4tHQjZOc6584Uu0ZR8=
-----END CERTIFICATE-----
