Certificate:
    Data:
        Version: 1 (0x0)
        Serial Number: 1 (0x1)
    Signature Algorithm: sha256WithRSAEncryption
        Issuer: OU=MySQLConnectorPython Root CA, CN=MyConnPy Root CA
        Validity
            Not Before: Jul  5 19:29:18 2018 GMT
            Not After : Jul  5 19:29:18 2019 GMT
        Subject: OU=MySQLConnectorPython Server Cert, CN=localhost
        Subject Public Key Info:
            Public Key Algorithm: rsaEncryption
                Public-Key: (2048 bit)
                Modulus:
                    00:d1:b5:20:2c:ca:c6:64:43:aa:45:7c:c2:1a:83:
                    84:c0:82:a4:fd:ce:3f:75:76:ff:d8:5e:36:9b:e8:
                    8e:e4:f4:9d:64:f5:83:5d:17:fc:c9:35:c5:b0:81:
                    dc:fa:18:f2:56:b7:dc:4c:94:6d:ce:2b:ac:33:d5:
                    08:50:17:fb:86:18:03:e9:e8:b7:3d:24:f3:17:86:
                    48:60:9d:16:a2:56:b1:24:a9:a6:84:b8:66:ad:db:
                    3e:c1:27:e7:a2:02:41:04:27:83:af:25:be:30:d8:
                    bb:76:76:bc:31:2c:89:5b:52:81:ce:f6:5f:6c:3e:
                    72:cc:e9:46:12:b5:78:a0:1e:9d:63:3c:b5:0b:05:
                    ae:a7:18:e1:80:e0:55:98:c5:c5:26:77:b7:cc:c4:
                    bd:57:4a:88:0d:6e:89:23:29:91:a3:c3:69:6c:f6:
                    af:b8:de:c1:04:af:15:4d:18:f6:41:de:9f:38:21:
                    06:12:81:ad:39:d9:8d:34:12:38:ea:67:9e:1e:21:
                    2f:cf:a7:99:7b:f9:6d:c1:78:60:ba:fb:a7:c5:14:
                    5e:8c:ac:34:9c:af:09:3e:32:4e:22:e9:25:3a:9c:
                    73:1d:84:50:f1:17:6f:76:03:81:f5:2e:c5:db:d8:
                    9f:44:02:b2:9c:6b:e0:36:37:88:56:92:d0:bc:f7:
                    44:71
                Exponent: 65537 (0x10001)
    Signature Algorithm: sha256WithRSAEncryption
         69:61:71:62:3a:97:51:93:34:51:a6:77:d3:57:74:4d:0e:63:
         36:91:9f:5c:7b:6c:4b:97:05:ca:e1:48:88:77:ec:a0:ed:bc:
         35:60:ec:de:50:22:c8:13:cd:f2:b7:30:bb:fe:ef:c4:6d:ba:
         11:1b:1a:46:9c:25:22:a2:27:7d:97:12:30:b6:34:80:a4:b3:
         49:41:44:0b:58:f1:d9:a3:ee:00:52:53:72:5b:c1:e2:dc:a6:
         d0:80:fc:04:eb:2f:eb:0a:e6:f1:fc:3e:37:6a:41:b1:fc:04:
         21:45:a1:7c:4f:43:99:b4:38:a9:f3:4e:e6:e5:da:fd:38:7f:
         50:6e:0b:78:6c:26:ef:9d:00:0f:b8:f6:26:b3:8e:24:17:6e:
         8c:d6:50:c0:3f:ab:d8:5a:a5:9b:76:e9:22:d1:c5:30:90:6d:
         33:5d:3a:dd:e9:f7:c0:89:f8:07:26:a0:db:30:68:e9:79:50:
         44:17:d9:95:d3:b9:61:06:eb:37:9e:95:10:46:37:7e:44:a5:
         05:e8:8c:54:47:58:8d:e2:ce:9c:ab:0d:60:c3:5a:8c:3a:36:
         11:b0:9e:be:ac:04:05:6b:67:22:e3:37:f0:d8:88:4c:9d:b9:
         19:52:56:35:e6:0d:b0:90:fe:92:c3:2c:0b:27:63:9b:93:06:
         01:b9:60:77
-----BEGIN CERTIFICATE-----
MIIC9TCCAd0CAQEwDQYJKoZIhvcNAQELBQAwQjElMCMGA1UECwwcTXlTUUxDb25u
ZWN0b3JQeXRob24gUm9vdCBDQTEZMBcGA1UEAwwQTXlDb25uUHkgUm9vdCBDQTAe
Fw0xODA3MDUxOTI5MThaFw0xOTA3MDUxOTI5MThaMD8xKTAnBgNVBAsMIE15U1FM
Q29ubmVjdG9yUHl0aG9uIFNlcnZlciBDZXJ0MRIwEAYDVQQDDAlsb2NhbGhvc3Qw
ggEiMA0GCSqGSIb3DQEBAQUAA4IBDwAwggEKAoIBAQDRtSAsysZkQ6pFfMIag4TA
gqT9zj91dv/YXjab6I7k9J1k9YNdF/zJNcWwgdz6GPJWt9xMlG3OK6wz1QhQF/uG
GAPp6Lc9JPMXhkhgnRaiVrEkqaaEuGat2z7BJ+eiAkEEJ4OvJb4w2Lt2drwxLIlb
UoHO9l9sPnLM6UYStXigHp1jPLULBa6nGOGA4FWYxcUmd7fMxL1XSogNbokjKZGj
w2ls9q+43sEErxVNGPZB3p84IQYSga052Y00EjjqZ54eIS/Pp5l7+W3BeGC6+6fF
FF6MrDScrwk+Mk4i6SU6nHMdhFDxF292A4H1LsXb2J9EArKca+A2N4hWktC890Rx
AgMBAAEwDQYJKoZIhvcNAQELBQADggEBAGlhcWI6l1GTNFGmd9NXdE0OYzaRn1x7
bEuXBcrhSIh37KDtvDVg7N5QIsgTzfK3MLv+78RtuhEbGkacJSKiJ32XEjC2NICk
s0lBRAtY8dmj7gBSU3JbweLcptCA/ATrL+sK5vH8PjdqQbH8BCFFoXxPQ5m0OKnz
Tubl2v04f1BuC3hsJu+dAA+49iazjiQXbozWUMA/q9hapZt26SLRxTCQbTNdOt3p
98CJ+AcmoNswaOl5UEQX2ZXTuWEG6zeelRBGN35EpQXojFRHWI3izpyrDWDDWow6
NhGwnr6sBAVrZyLjN/DYiEyduRlSVjXmDbCQ/pLDLAsnY5uTBgG5YHc=
-----END CERTIFICATE-----
