Certificate:
    Data:
        Version: 1 (0x0)
        Serial Number: 2 (0x2)
    Signature Algorithm: md5WithRSAEncryption
        Issuer: OU=MySQLConnectorPython Root CA, CN=MyConnPy Root CA
        Validity
            Not Before: Jul 12 09:42:29 2017 GMT
            Not After : Jul 12 09:42:29 2018 GMT
        Subject: OU=MySQLConnectorPython Client Cert, CN=localhost
        Subject Public Key Info:
            Public Key Algorithm: rsaEncryption
                Public-Key: (2048 bit)
                Modulus:
                    00:e9:3c:0c:d4:ef:ee:41:5f:f6:d3:ca:81:3c:08:
                    59:50:37:c9:a4:79:8d:65:71:41:72:93:6a:a3:1b:
                    87:db:38:98:7a:4a:f9:3b:95:73:3a:4a:42:c5:56:
                    c8:2d:14:c5:11:2c:fe:ca:14:64:87:3c:49:db:5d:
                    a1:49:0f:de:b8:3d:33:49:48:8d:b6:13:66:07:b7:
                    0c:9a:bb:bd:01:ab:54:8c:f1:08:e5:3a:f7:4e:16:
                    b9:7d:bc:2f:51:ca:7d:94:b9:b1:09:23:30:e6:6e:
                    2b:e8:0a:05:07:ac:1c:20:b3:25:6f:61:89:8a:53:
                    08:aa:46:31:28:df:63:04:13:12:44:9e:21:e0:15:
                    87:81:33:34:6d:71:90:40:10:4c:ab:3a:c7:10:5c:
                    3a:c4:72:6b:f9:4b:74:4f:f6:d7:4f:19:fb:60:83:
                    88:d2:8e:d8:45:01:40:4e:9c:7a:68:4c:d7:cc:7a:
                    48:a6:20:6b:35:a5:c1:bc:69:65:67:9c:07:06:7f:
                    6a:9a:62:9b:42:93:72:af:10:78:04:d7:5f:df:68:
                    34:a6:ec:e7:4b:55:84:84:e0:1b:4b:e8:a3:3f:21:
                    b9:41:a2:5e:d5:03:39:23:94:22:42:b0:44:18:4a:
                    0c:29:87:2e:45:58:01:eb:f5:27:94:08:70:bb:c1:
                    89:1f
                Exponent: 65537 (0x10001)
    Signature Algorithm: md5WithRSAEncryption
         8d:da:56:ae:94:99:f6:6f:fb:bb:ce:92:36:11:cb:d3:1c:a9:
         8c:1f:98:fd:37:82:93:cc:50:91:bc:5f:41:86:ed:21:15:e2:
         1f:6b:c9:98:33:d1:f2:a0:87:a2:38:ac:b2:4b:36:ce:66:e8:
         9e:14:a9:9e:67:64:d3:01:17:5a:c4:3a:20:9b:a5:0e:08:92:
         d7:b5:30:81:35:8e:fe:81:59:9b:f5:d2:4e:49:81:ff:c9:35:
         b3:fe:25:de:da:4e:51:50:24:10:5a:17:29:9c:d0:5b:67:dd:
         11:d4:ed:4b:c6:3a:1b:bb:61:44:9a:8a:e4:81:0d:de:0d:8b:
         b9:ee:67:d2:3c:49:1a:cb:e1:77:21:10:9c:fa:2e:40:42:2f:
         d9:f6:79:b7:2b:13:7f:13:51:87:58:5c:68:9d:36:a6:e2:15:
         13:29:07:3a:41:f3:99:ed:c3:41:af:4a:41:88:7f:a1:bd:30:
         d4:9e:5b:fd:d9:6d:dc:d7:f8:85:3e:95:49:d2:76:a9:ba:4e:
         e0:f8:37:f7:87:5d:00:a6:55:a3:f3:46:00:98:51:37:a8:f3:
         8c:02:02:ef:26:85:b8:80:93:0c:bc:98:c7:80:2d:bf:55:41:
         4a:67:97:a2:6a:e2:99:3a:2c:5b:28:4d:03:a9:b0:c1:89:f1:
         0d:7a:1c:f4
-----BEGIN CERTIFICATE-----
MIIC9TCCAd0CAQIwDQYJKoZIhvcNAQEEBQAwQjElMCMGA1UECwwcTXlTUUxDb25u
ZWN0b3JQeXRob24gUm9vdCBDQTEZMBcGA1UEAwwQTXlDb25uUHkgUm9vdCBDQTAe
Fw0xNzA3MTIwOTQyMjlaFw0xODA3MTIwOTQyMjlaMD8xKTAnBgNVBAsMIE15U1FM
Q29ubmVjdG9yUHl0aG9uIENsaWVudCBDZXJ0MRIwEAYDVQQDDAlsb2NhbGhvc3Qw
ggEiMA0GCSqGSIb3DQEBAQUAA4IBDwAwggEKAoIBAQDpPAzU7+5BX/bTyoE8CFlQ
N8mkeY1lcUFyk2qjG4fbOJh6Svk7lXM6SkLFVsgtFMURLP7KFGSHPEnbXaFJD964
PTNJSI22E2YHtwyau70Bq1SM8QjlOvdOFrl9vC9Ryn2UubEJIzDmbivoCgUHrBwg
syVvYYmKUwiqRjEo32MEExJEniHgFYeBMzRtcZBAEEyrOscQXDrEcmv5S3RP9tdP
Gftgg4jSjthFAUBOnHpoTNfMekimIGs1pcG8aWVnnAcGf2qaYptCk3KvEHgE11/f
aDSm7OdLVYSE4BtL6KM/IblBol7VAzkjlCJCsEQYSgwphy5FWAHr9SeUCHC7wYkf
AgMBAAEwDQYJKoZIhvcNAQEEBQADggEBAI3aVq6UmfZv+7vOkjYRy9McqYwfmP03
gpPMUJG8X0GG7SEV4h9ryZgz0fKgh6I4rLJLNs5m6J4UqZ5nZNMBF1rEOiCbpQ4I
kte1MIE1jv6BWZv10k5Jgf/JNbP+Jd7aTlFQJBBaFymc0Ftn3RHU7UvGOhu7YUSa
iuSBDd4Ni7nuZ9I8SRrL4XchEJz6LkBCL9n2ebcrE38TUYdYXGidNqbiFRMpBzpB
85ntw0GvSkGIf6G9MNSeW/3ZbdzX+IU+lUnSdqm6TuD4N/eHXQCmVaPzRgCYUTeo
84wCAu8mhbiAkwy8mMeALb9VQUpnl6Jq4pk6LFsoTQOpsMGJ8Q16HPQ=
-----END CERTIFICATE-----
