Certificate:
    Data:
        Version: 1 (0x0)
        Serial Number: 1 (0x1)
    Signature Algorithm: md5WithRSAEncryption
        Issuer: OU=MySQLConnectorPython Root CA, CN=MyConnPy Root CA
        Validity
            Not Before: Jun  7 08:34:04 2018 GMT
            Not After : Jun  7 08:34:04 2019 GMT
        Subject: OU=MySQLConnectorPython Server Cert, CN=localhost
        Subject Public Key Info:
            Public Key Algorithm: rsaEncryption
                Public-Key: (2048 bit)
                Modulus:
                    00:c7:7f:55:09:a3:cb:53:f4:21:0a:71:4f:0c:a0:
                    a1:88:4f:64:30:83:a8:ee:2e:9d:ae:a4:b2:35:f3:
                    af:ad:ed:1c:10:b2:07:ae:0b:d4:93:3d:d6:0a:e0:
                    76:93:24:e9:09:a2:d3:6e:3b:87:1c:52:bc:9d:1b:
                    f4:65:91:7a:a1:26:68:f4:be:d9:e2:3c:f5:1f:0e:
                    7a:70:b1:5d:15:39:88:62:d1:b0:4c:89:9c:9c:32:
                    7d:49:05:47:7b:2d:62:27:76:0d:1c:7b:ff:33:0d:
                    a1:44:3f:fa:42:6e:77:56:10:0e:eb:41:ae:37:a2:
                    e5:0d:74:e5:86:0d:32:d4:b7:e8:77:74:53:16:96:
                    1c:a9:4a:cd:6d:12:f2:fa:ef:12:2c:bb:7c:b0:44:
                    cb:2d:c7:fc:a8:57:13:d5:b9:c8:2d:0f:6c:a3:ad:
                    62:2a:b3:46:44:bc:70:ce:46:8b:4e:76:05:c7:28:
                    5c:98:8a:7c:b6:5e:51:e9:68:4b:b3:e8:fe:bd:a5:
                    09:b8:bd:02:11:a4:55:1f:76:97:6f:5e:f1:96:06:
                    ca:95:12:3a:b6:a0:ef:ac:37:c4:d7:57:2c:cd:c9:
                    9d:8f:2f:57:b1:ea:e9:5e:f1:aa:75:84:97:80:e2:
                    31:b8:d1:bd:84:12:79:04:54:1a:24:20:6d:a6:e4:
                    a0:17
                Exponent: 65537 (0x10001)
    Signature Algorithm: md5WithRSAEncryption
         9d:94:05:af:8c:b7:34:9d:b4:a5:a1:62:ff:dc:28:8c:08:fe:
         26:79:c1:43:e2:79:da:d8:94:03:4d:df:f0:32:af:7e:7d:60:
         cc:e5:cf:f2:e9:22:d5:0d:e1:1e:f9:ab:0b:fc:2a:76:cc:f5:
         ec:61:17:a0:7a:e5:81:99:31:e9:6c:e3:4a:26:e4:86:86:16:
         69:d1:88:bf:2d:6f:6d:47:5e:dc:85:98:a0:64:bc:0d:1b:24:
         2d:cf:93:11:2b:b0:1f:64:50:23:b6:48:9a:84:42:80:2a:d8:
         72:20:72:a6:2d:0f:79:22:63:e3:b7:e1:b5:50:d3:a5:ee:7e:
         61:62:b7:e7:39:b9:7b:2b:fc:81:83:25:c2:35:5d:22:be:cd:
         0b:ea:ea:3e:89:a9:7c:64:c0:73:03:8f:ec:00:8e:c8:dc:c9:
         f0:28:34:47:12:0b:b5:4a:36:be:29:cf:ed:a3:a8:fa:80:f0:
         c7:64:ad:09:bc:36:42:df:dc:27:a1:0a:c5:bc:0b:d6:a6:b9:
         5f:a3:23:83:bf:30:7e:8d:53:d6:10:a9:ab:54:ca:06:23:8c:
         97:e8:d4:43:0e:86:d3:7e:fb:ef:c4:d5:41:75:24:7e:e7:2a:
         19:13:2f:90:b8:10:09:9e:8d:85:c7:07:a3:15:f6:98:8c:0c:
         e4:1f:23:4f
-----BEGIN CERTIFICATE-----
MIIC9TCCAd0CAQEwDQYJKoZIhvcNAQEEBQAwQjElMCMGA1UECwwcTXlTUUxDb25u
ZWN0b3JQeXRob24gUm9vdCBDQTEZMBcGA1UEAwwQTXlDb25uUHkgUm9vdCBDQTAe
Fw0xODA2MDcwODM0MDRaFw0xOTA2MDcwODM0MDRaMD8xKTAnBgNVBAsMIE15U1FM
Q29ubmVjdG9yUHl0aG9uIFNlcnZlciBDZXJ0MRIwEAYDVQQDDAlsb2NhbGhvc3Qw
ggEiMA0GCSqGSIb3DQEBAQUAA4IBDwAwggEKAoIBAQDHf1UJo8tT9CEKcU8MoKGI
T2Qwg6juLp2upLI186+t7RwQsgeuC9STPdYK4HaTJOkJotNuO4ccUrydG/RlkXqh
Jmj0vtniPPUfDnpwsV0VOYhi0bBMiZycMn1JBUd7LWIndg0ce/8zDaFEP/pCbndW
EA7rQa43ouUNdOWGDTLUt+h3dFMWlhypSs1tEvL67xIsu3ywRMstx/yoVxPVucgt
D2yjrWIqs0ZEvHDORotOdgXHKFyYiny2XlHpaEuz6P69pQm4vQIRpFUfdpdvXvGW
BsqVEjq2oO+sN8TXVyzNyZ2PL1ex6ule8ap1hJeA4jG40b2EEnkEVBokIG2m5KAX
AgMBAAEwDQYJKoZIhvcNAQEEBQADggEBAJ2UBa+MtzSdtKWhYv/cKIwI/iZ5wUPi
edrYlANN3/Ayr359YMzlz/LpItUN4R75qwv8KnbM9exhF6B65YGZMels40om5IaG
FmnRiL8tb21HXtyFmKBkvA0bJC3PkxErsB9kUCO2SJqEQoAq2HIgcqYtD3kiY+O3
4bVQ06XufmFit+c5uXsr/IGDJcI1XSK+zQvq6j6JqXxkwHMDj+wAjsjcyfAoNEcS
C7VKNr4pz+2jqPqA8MdkrQm8NkLf3CehCsW8C9amuV+jI4O/MH6NU9YQqatUygYj
jJfo1EMOhtN+++/E1UF1JH7nKhkTL5C4EAmejYXHB6MV9piMDOQfI08=
-----END CERTIFICATE-----
