Certificate:
    Data:
        Version: 1 (0x0)
        Serial Number: 1 (0x1)
        Signature Algorithm: sha256WithRSAEncryption
        Issuer: OU=MySQLConnectorPython Root CA, CN=MyConnPy Root CA
        Validity
            Not Before: Jul 12 09:12:01 2022 GMT
            Not After : Jul 12 09:12:01 2023 GMT
        Subject: OU=MySQLConnectorPython Server Cert, CN=localhost
        Subject Public Key Info:
            Public Key Algorithm: rsaEncryption
                RSA Public-Key: (2048 bit)
                Modulus:
                    00:d7:d2:16:1c:e7:50:d4:0a:d5:b5:8a:a2:48:45:
                    ce:4a:f2:0c:fe:97:2c:5b:bb:f9:2b:0d:3a:f6:b8:
                    f1:ab:7d:19:39:61:be:7e:64:ae:26:11:cd:8f:c7:
                    f3:bb:ed:51:cf:a6:94:35:3a:a1:55:0a:1d:4f:d6:
                    d5:9c:4b:ea:da:94:dc:62:50:76:04:86:22:24:21:
                    ad:c9:20:61:92:4d:84:16:4c:45:84:5f:f8:2a:f9:
                    47:cf:2d:78:a2:2a:3b:4f:03:06:d3:2d:01:73:d8:
                    f1:5d:ea:d4:49:34:39:6f:d3:12:3a:e1:2a:f4:b9:
                    cf:be:43:7c:c8:d6:b7:07:de:db:38:88:47:a2:e9:
                    10:df:f1:4b:26:ea:20:ca:99:60:85:03:02:4e:c9:
                    08:46:59:24:31:48:45:55:e3:a2:0e:99:2d:fa:d7:
                    09:ee:ce:86:06:04:c3:c9:c8:c2:74:e9:17:41:a3:
                    32:24:28:f9:72:00:bb:82:fc:ee:19:1e:63:f9:b0:
                    67:b2:11:88:f9:1f:03:1f:e5:39:7f:70:a9:94:bb:
                    5b:dc:a9:e0:5e:8c:5c:5f:3c:98:27:fd:d9:7a:c4:
                    49:ed:db:3b:ed:ce:ca:b3:39:e2:e5:d2:2d:a1:8e:
                    3a:f4:8b:ec:57:92:db:39:38:95:32:61:52:fc:44:
                    8f:77
                Exponent: 65537 (0x10001)
    Signature Algorithm: sha256WithRSAEncryption
         39:81:9d:f3:99:73:96:51:9f:d1:84:0e:ae:91:64:9f:d6:69:
         b1:00:b3:f8:8d:22:08:e2:f3:9b:35:6b:e8:19:fc:b1:28:84:
         19:7a:18:e3:29:20:9b:c6:c9:f7:97:29:83:17:88:03:8b:a2:
         dc:f8:94:6e:2f:dc:a8:82:dc:e2:ec:6c:0a:5f:60:9e:9a:1a:
         d1:1a:14:99:73:55:3e:b2:52:32:9a:2d:ff:83:74:09:82:23:
         78:b5:73:44:bc:4b:80:ca:2a:30:0e:5c:3d:48:60:79:20:e2:
         65:5d:86:17:26:fa:0f:6b:28:aa:28:77:96:74:0e:be:1f:98:
         61:d4:e3:d1:d1:92:5f:0b:59:b7:4d:ae:a0:6b:28:1a:d8:88:
         5d:8e:c7:9e:31:7f:55:0c:30:53:c3:8b:9f:e0:b9:25:1f:b0:
         91:2f:c9:75:c4:b0:0e:88:35:73:83:4a:91:b3:68:f8:1e:38:
         31:09:ef:98:a9:38:43:a7:38:1a:b8:dd:48:af:f6:53:6b:14:
         e8:1c:ac:7e:57:84:09:45:ce:8b:a7:03:17:86:73:24:2a:25:
         9f:56:bb:22:19:c6:16:e9:e4:6b:7f:38:2a:b6:d8:39:ab:68:
         22:e6:e9:f2:cf:40:99:a8:51:7c:d2:c7:81:e3:01:b5:b8:c5:
         d3:a8:6c:f2
-----BEGIN CERTIFICATE-----
MIIC9TCCAd0CAQEwDQYJKoZIhvcNAQELBQAwQjElMCMGA1UECwwcTXlTUUxDb25u
ZWN0b3JQeXRob24gUm9vdCBDQTEZMBcGA1UEAwwQTXlDb25uUHkgUm9vdCBDQTAe
Fw0yMjA3MTIwOTEyMDFaFw0yMzA3MTIwOTEyMDFaMD8xKTAnBgNVBAsMIE15U1FM
Q29ubmVjdG9yUHl0aG9uIFNlcnZlciBDZXJ0MRIwEAYDVQQDDAlsb2NhbGhvc3Qw
ggEiMA0GCSqGSIb3DQEBAQUAA4IBDwAwggEKAoIBAQDX0hYc51DUCtW1iqJIRc5K
8gz+lyxbu/krDTr2uPGrfRk5Yb5+ZK4mEc2Px/O77VHPppQ1OqFVCh1P1tWcS+ra
lNxiUHYEhiIkIa3JIGGSTYQWTEWEX/gq+UfPLXiiKjtPAwbTLQFz2PFd6tRJNDlv
0xI64Sr0uc++Q3zI1rcH3ts4iEei6RDf8Usm6iDKmWCFAwJOyQhGWSQxSEVV46IO
mS361wnuzoYGBMPJyMJ06RdBozIkKPlyALuC/O4ZHmP5sGeyEYj5HwMf5Tl/cKmU
u1vcqeBejFxfPJgn/dl6xEnt2zvtzsqzOeLl0i2hjjr0i+xXkts5OJUyYVL8RI93
AgMBAAEwDQYJKoZIhvcNAQELBQADggEBADmBnfOZc5ZRn9GEDq6RZJ/WabEAs/iN
Igji85s1a+gZ/LEohBl6GOMpIJvGyfeXKYMXiAOLotz4lG4v3KiC3OLsbApfYJ6a
GtEaFJlzVT6yUjKaLf+DdAmCI3i1c0S8S4DKKjAOXD1IYHkg4mVdhhcm+g9rKKoo
d5Z0Dr4fmGHU49HRkl8LWbdNrqBrKBrYiF2Ox54xf1UMMFPDi5/guSUfsJEvyXXE
sA6INXODSpGzaPgeODEJ75ipOEOnOBq43Uiv9lNrFOgcrH5XhAlFzounAxeGcyQq
JZ9WuyIZxhbp5Gt/OCq22DmraCLm6fLPQJmoUXzSx4HjAbW4xdOobPI=
-----END CERTIFICATE-----
