Certificate:
    Data:
        Version: 1 (0x0)
        Serial Number: 1 (0x1)
        Signature Algorithm: sha256WithRSAEncryption
        Issuer: OU=MySQLConnectorPython Root CA, CN=MyConnPy Root CA
        Validity
            Not Before: Jul  8 11:40:42 2019 GMT
            Not After : Jul  7 11:40:42 2020 GMT
        Subject: OU=MySQLConnectorPython Server Cert, CN=localhost
        Subject Public Key Info:
            Public Key Algorithm: rsaEncryption
                RSA Public-Key: (2048 bit)
                Modulus:
                    00:a5:75:de:e3:c6:d4:6d:bc:90:7b:cc:94:85:22:
                    d8:b0:c1:6b:fc:1d:84:24:92:24:3d:bb:48:68:0a:
                    8e:3f:00:7a:bb:0a:c6:25:38:6a:c0:50:8a:4f:20:
                    55:2b:00:d1:50:1c:62:a1:2c:be:00:78:28:fc:d8:
                    c8:ad:a9:19:f4:71:2a:08:9e:64:dc:19:3b:70:ea:
                    a4:30:2f:25:f9:7c:af:b1:4d:02:45:34:8d:2b:44:
                    e3:01:f8:c8:5a:5c:0d:7b:e0:50:62:e9:e5:b8:0e:
                    b8:f9:c6:e6:e5:de:8e:38:77:dd:c5:ad:a2:69:8b:
                    42:05:b1:72:c7:0e:94:9d:17:d7:9b:c5:42:36:f6:
                    f9:c2:84:97:4a:c9:71:1b:02:87:9a:68:19:dd:07:
                    07:1f:13:a2:8e:d0:22:ee:b3:05:32:81:a5:9e:3c:
                    2c:ae:17:27:cc:90:89:02:8e:41:d8:75:21:45:f5:
                    38:30:57:d9:33:73:7b:32:cb:3e:2a:17:fe:ab:55:
                    fd:ca:4e:7f:33:2f:48:0a:09:be:07:74:e9:5f:42:
                    8b:e7:f6:1f:57:2b:a4:a2:89:72:94:18:be:60:90:
                    2f:32:5c:0a:37:73:de:6f:05:79:cf:ae:9f:4a:a6:
                    e3:76:a5:ce:98:b5:56:30:42:83:97:ca:ef:c8:4e:
                    5a:e5
                Exponent: 65537 (0x10001)
    Signature Algorithm: sha256WithRSAEncryption
         44:81:02:a8:2d:f2:ff:26:e4:11:7f:02:d1:1f:01:f3:b9:d6:
         c8:cd:ca:a8:aa:eb:57:08:5a:8f:3f:2d:cb:30:bf:27:5a:27:
         20:a8:9c:9b:04:5a:6c:da:01:c8:2a:f9:68:b5:16:9e:5b:f8:
         a5:55:66:0a:3e:ba:38:1e:c9:e1:5d:31:de:ac:6e:ad:b1:fb:
         72:df:f8:2c:4c:77:5e:7b:22:be:d5:49:27:aa:3b:6c:36:33:
         23:19:41:14:31:b2:10:66:08:91:46:e1:e2:90:43:b3:b5:5d:
         b6:2c:0e:59:5e:86:04:fc:9c:6d:9d:a2:8b:40:65:07:d8:58:
         37:48:af:c2:bb:be:70:69:42:62:2a:be:a1:be:07:39:0d:b8:
         57:34:ff:73:17:c6:37:ab:08:e9:5b:2f:82:1e:cb:08:30:03:
         f9:f8:0d:60:b4:69:ff:ba:f1:c5:26:3e:a1:c4:df:a8:a8:c2:
         82:bb:fa:b2:dd:94:51:c6:f4:e6:af:85:c4:7a:99:66:eb:ad:
         fc:6a:d5:47:e8:87:1b:b7:87:b0:7e:78:46:a8:61:a2:21:1c:
         27:b1:4b:4c:0a:8d:81:95:ea:0c:98:1c:9e:70:b4:0f:0d:2e:
         53:7b:aa:0d:9d:62:6b:b3:d5:81:d0:dd:da:fd:28:3d:70:52:
         e0:b0:77:42
-----BEGIN CERTIFICATE-----
MIIC9TCCAd0CAQEwDQYJKoZIhvcNAQELBQAwQjElMCMGA1UECwwcTXlTUUxDb25u
ZWN0b3JQeXRob24gUm9vdCBDQTEZMBcGA1UEAwwQTXlDb25uUHkgUm9vdCBDQTAe
Fw0xOTA3MDgxMTQwNDJaFw0yMDA3MDcxMTQwNDJaMD8xKTAnBgNVBAsMIE15U1FM
Q29ubmVjdG9yUHl0aG9uIFNlcnZlciBDZXJ0MRIwEAYDVQQDDAlsb2NhbGhvc3Qw
ggEiMA0GCSqGSIb3DQEBAQUAA4IBDwAwggEKAoIBAQCldd7jxtRtvJB7zJSFItiw
wWv8HYQkkiQ9u0hoCo4/AHq7CsYlOGrAUIpPIFUrANFQHGKhLL4AeCj82MitqRn0
cSoInmTcGTtw6qQwLyX5fK+xTQJFNI0rROMB+MhaXA174FBi6eW4Drj5xubl3o44
d93FraJpi0IFsXLHDpSdF9ebxUI29vnChJdKyXEbAoeaaBndBwcfE6KO0CLuswUy
gaWePCyuFyfMkIkCjkHYdSFF9TgwV9kzc3syyz4qF/6rVf3KTn8zL0gKCb4HdOlf
Qovn9h9XK6SiiXKUGL5gkC8yXAo3c95vBXnPrp9KpuN2pc6YtVYwQoOXyu/ITlrl
AgMBAAEwDQYJKoZIhvcNAQELBQADggEBAESBAqgt8v8m5BF/AtEfAfO51sjNyqiq
61cIWo8/LcswvydaJyConJsEWmzaAcgq+Wi1Fp5b+KVVZgo+ujgeyeFdMd6sbq2x
+3Lf+CxMd157Ir7VSSeqO2w2MyMZQRQxshBmCJFG4eKQQ7O1XbYsDllehgT8nG2d
ootAZQfYWDdIr8K7vnBpQmIqvqG+BzkNuFc0/3MXxjerCOlbL4IeywgwA/n4DWC0
af+68cUmPqHE36iowoK7+rLdlFHG9OavhcR6mWbrrfxq1Ufohxu3h7B+eEaoYaIh
HCexS0wKjYGV6gyYHJ5wtA8NLlN7qg2dYmuz1YHQ3dr9KD1wUuCwd0I=
-----END CERTIFICATE-----
