Certificate:
    Data:
        Version: 1 (0x0)
        Serial Number: 2 (0x2)
        Signature Algorithm: sha256WithRSAEncryption
        Issuer: OU=MySQLConnectorPython Root CA, CN=MyConnPy Root CA
        Validity
            Not Before: Jul  7 21:56:10 2020 GMT
            Not After : Jul  7 21:56:10 2021 GMT
        Subject: OU=MySQLConnectorPython Client Cert, CN=localhost
        Subject Public Key Info:
            Public Key Algorithm: rsaEncryption
                RSA Public-Key: (2048 bit)
                Modulus:
                    00:e3:90:4a:67:19:0a:9e:7b:54:e4:61:2a:15:41:
                    65:c3:76:0d:ac:72:79:c6:55:3d:50:f5:0d:e4:3c:
                    49:21:ed:83:3d:d5:f8:a6:f9:35:b6:17:91:a8:d7:
                    09:5c:1a:39:90:dd:b3:40:23:1b:ae:81:75:8e:bd:
                    0f:e0:40:9c:ed:7c:c4:38:06:38:2e:ce:37:0b:47:
                    db:84:ef:99:0f:19:19:c3:ce:fe:58:4d:f1:b3:d3:
                    8e:d9:88:f3:ea:68:8a:8d:ca:59:a2:5d:33:f3:41:
                    3e:4f:92:3e:40:cc:55:5e:2b:40:62:0c:d3:dc:d0:
                    b9:59:09:a3:78:ca:f0:d8:66:c4:81:40:10:17:d7:
                    5b:59:7a:c5:ad:c4:fe:d2:42:7a:c9:d5:17:39:51:
                    aa:40:b5:91:8c:b2:68:98:5d:77:a7:51:4b:ae:d2:
                    2f:31:73:f9:ea:89:60:ad:ae:d3:6e:0e:fc:00:5d:
                    7d:07:7d:52:36:a3:76:6c:09:26:65:b8:e4:d3:a6:
                    45:aa:61:4d:67:53:c5:5b:1f:82:63:d5:56:4b:db:
                    d7:0b:bc:2f:1b:1f:65:a6:81:df:17:2e:72:50:c0:
                    da:75:e9:6c:1b:f9:fe:05:8d:e8:a1:8d:7d:5f:e9:
                    d6:24:eb:41:12:6c:71:8e:19:82:08:d9:31:f4:59:
                    9a:3d
                Exponent: 65537 (0x10001)
    Signature Algorithm: sha256WithRSAEncryption
         66:3a:b2:27:2c:5e:35:49:75:00:b8:70:27:6f:eb:91:a2:03:
         01:8e:9f:54:f5:ba:7f:40:98:da:09:7c:a7:06:09:db:33:ef:
         ee:19:8a:84:ed:1a:76:f6:52:bc:81:8e:15:46:2d:31:86:59:
         1b:0d:68:e0:59:3e:e1:4f:6d:1b:c6:5b:48:06:03:26:de:12:
         60:b7:cf:da:19:14:62:02:17:cb:1d:70:09:03:a3:08:97:22:
         3b:5b:37:62:df:c5:46:d9:50:8c:29:79:cb:a6:cd:dc:09:4b:
         1b:6f:5f:c0:c9:0a:60:b3:6b:dd:20:cd:9c:b2:0e:d2:81:54:
         60:18:5c:44:17:87:4f:cb:a2:bb:d9:e3:b7:fb:f6:46:bf:d8:
         03:b5:5a:0b:60:aa:8e:11:e3:95:ae:e8:90:ad:aa:4e:84:58:
         0e:3d:03:ba:14:04:a5:2e:04:67:2c:2f:39:18:11:be:eb:13:
         53:4b:72:a0:9a:bc:57:59:97:43:4d:ba:7c:70:71:2e:38:53:
         07:b9:4c:69:54:3f:1c:27:a2:fa:ab:6c:61:f4:8e:3f:05:19:
         d9:98:06:cf:3c:7c:2e:b9:e7:46:24:44:95:8a:2a:38:aa:70:
         45:b6:bc:c6:7b:ba:3b:ef:79:d9:76:29:ac:e2:cc:76:56:3f:
         3b:3a:b6:d6
-----BEGIN CERTIFICATE-----
MIIC9TCCAd0CAQIwDQYJKoZIhvcNAQELBQAwQjElMCMGA1UECwwcTXlTUUxDb25u
ZWN0b3JQeXRob24gUm9vdCBDQTEZMBcGA1UEAwwQTXlDb25uUHkgUm9vdCBDQTAe
Fw0yMDA3MDcyMTU2MTBaFw0yMTA3MDcyMTU2MTBaMD8xKTAnBgNVBAsMIE15U1FM
Q29ubmVjdG9yUHl0aG9uIENsaWVudCBDZXJ0MRIwEAYDVQQDDAlsb2NhbGhvc3Qw
ggEiMA0GCSqGSIb3DQEBAQUAA4IBDwAwggEKAoIBAQDjkEpnGQqee1TkYSoVQWXD
dg2scnnGVT1Q9Q3kPEkh7YM91fim+TW2F5Go1wlcGjmQ3bNAIxuugXWOvQ/gQJzt
fMQ4BjguzjcLR9uE75kPGRnDzv5YTfGz047ZiPPqaIqNylmiXTPzQT5Pkj5AzFVe
K0BiDNPc0LlZCaN4yvDYZsSBQBAX11tZesWtxP7SQnrJ1Rc5UapAtZGMsmiYXXen
UUuu0i8xc/nqiWCtrtNuDvwAXX0HfVI2o3ZsCSZluOTTpkWqYU1nU8VbH4Jj1VZL
29cLvC8bH2Wmgd8XLnJQwNp16Wwb+f4FjeihjX1f6dYk60ESbHGOGYII2TH0WZo9
AgMBAAEwDQYJKoZIhvcNAQELBQADggEBAGY6sicsXjVJdQC4cCdv65GiAwGOn1T1
un9AmNoJfKcGCdsz7+4ZioTtGnb2UryBjhVGLTGGWRsNaOBZPuFPbRvGW0gGAybe
EmC3z9oZFGICF8sdcAkDowiXIjtbN2LfxUbZUIwpecumzdwJSxtvX8DJCmCza90g
zZyyDtKBVGAYXEQXh0/LorvZ47f79ka/2AO1Wgtgqo4R45Wu6JCtqk6EWA49A7oU
BKUuBGcsLzkYEb7rE1NLcqCavFdZl0NNunxwcS44Uwe5TGlUPxwnovqrbGH0jj8F
GdmYBs88fC6550YkRJWKKjiqcEW2vMZ7ujvvedl2KazizHZWPzs6ttY=
-----END CERTIFICATE-----
