Certificate:
    Data:
        Version: 1 (0x0)
        Serial Number: 2 (0x2)
        Signature Algorithm: sha256WithRSAEncryption
        Issuer: OU=MySQLConnectorPython Root CA, CN=MyConnPy Root CA
        Validity
            Not Before: Jul 12 09:12:01 2022 GMT
            Not After : Jul 12 09:12:01 2023 GMT
        Subject: OU=MySQLConnectorPython Client Cert, CN=localhost
        Subject Public Key Info:
            Public Key Algorithm: rsaEncryption
                RSA Public-Key: (2048 bit)
                Modulus:
                    00:c2:2c:0e:0f:b5:a5:68:c5:a9:2e:39:7b:d6:30:
                    be:cd:09:70:e6:d6:91:cb:e4:2f:48:ec:5b:fa:06:
                    b6:85:a5:3a:ed:ac:40:39:b1:be:e9:d0:fb:cd:af:
                    45:b9:9c:3a:77:c4:21:ae:0f:99:b9:bb:79:f6:1a:
                    a2:c3:e7:97:ea:0f:e1:7b:6e:4e:d6:32:65:e9:fb:
                    cb:08:cd:c0:0b:08:fb:93:30:8e:2e:ea:22:95:19:
                    ed:89:f8:68:15:74:05:dd:e6:7c:1f:f5:1b:e6:10:
                    f0:4b:76:09:30:6b:48:58:88:47:4c:09:1a:c2:d2:
                    0a:11:e6:c8:53:39:a8:d7:a3:3d:42:ae:fe:60:22:
                    54:16:12:16:7e:bd:a3:31:01:17:f0:e2:fd:69:6f:
                    17:6f:44:f6:a1:77:fe:ec:92:50:58:75:56:78:ba:
                    52:a0:dc:b3:36:a3:69:3f:70:45:bb:8e:7c:a4:00:
                    10:2a:41:c4:a7:e8:23:c7:41:ee:a1:71:ee:f3:5d:
                    7c:3d:e4:77:b9:08:d0:b4:95:87:ce:b8:a6:e9:9f:
                    53:3a:d3:07:97:fc:76:56:9d:60:51:a9:ff:04:cd:
                    06:5f:5b:73:92:07:7b:cc:21:e0:bd:35:d2:00:87:
                    27:97:c2:41:ea:e0:b3:14:1d:59:33:16:49:99:a4:
                    5b:23
                Exponent: 65537 (0x10001)
    Signature Algorithm: sha256WithRSAEncryption
         b6:b7:94:7e:0c:3e:8a:75:23:65:66:f4:67:76:03:1e:62:06:
         b2:65:0f:8e:5a:3b:3a:1d:96:cd:af:ae:ae:d0:42:8d:b2:3e:
         d5:b5:4a:fd:e9:88:dd:5e:1b:f8:6f:0d:a8:1a:7d:d7:07:47:
         95:75:77:63:7a:06:db:70:05:f4:35:8d:7d:bb:dd:fd:48:0b:
         32:67:14:36:0c:93:32:1e:ad:e6:0c:31:11:c4:37:b7:6b:5a:
         8a:f5:7a:a3:87:33:78:ef:38:48:60:14:79:42:e4:59:b6:fe:
         9f:14:1c:e6:2f:7e:35:83:5e:fa:92:18:de:f6:e0:73:df:c5:
         78:1c:97:0b:94:a6:40:13:3d:0e:16:c2:34:8b:19:f1:72:53:
         74:ed:a5:e8:c3:3d:6b:55:aa:e9:d8:5e:b0:f1:d2:3d:cd:70:
         85:76:6b:1e:13:1e:e8:b7:5b:45:49:5c:7d:32:01:a0:c7:0e:
         db:05:c5:2d:b7:02:8b:bf:97:cb:df:b9:73:4e:ee:a9:3a:7a:
         f8:8f:81:5f:0f:fa:06:89:c5:70:1b:8a:5a:e7:25:1e:25:39:
         97:a3:88:64:22:1f:dc:78:f5:69:84:4b:a4:31:71:5c:a3:e1:
         07:11:a6:08:b4:0b:96:6d:1c:0e:9e:b7:de:32:cc:18:9f:43:
         60:75:32:f0
-----BEGIN CERTIFICATE-----
MIIC9TCCAd0CAQIwDQYJKoZIhvcNAQELBQAwQjElMCMGA1UECwwcTXlTUUxDb25u
ZWN0b3JQeXRob24gUm9vdCBDQTEZMBcGA1UEAwwQTXlDb25uUHkgUm9vdCBDQTAe
Fw0yMjA3MTIwOTEyMDFaFw0yMzA3MTIwOTEyMDFaMD8xKTAnBgNVBAsMIE15U1FM
Q29ubmVjdG9yUHl0aG9uIENsaWVudCBDZXJ0MRIwEAYDVQQDDAlsb2NhbGhvc3Qw
ggEiMA0GCSqGSIb3DQEBAQUAA4IBDwAwggEKAoIBAQDCLA4PtaVoxakuOXvWML7N
CXDm1pHL5C9I7Fv6BraFpTrtrEA5sb7p0PvNr0W5nDp3xCGuD5m5u3n2GqLD55fq
D+F7bk7WMmXp+8sIzcALCPuTMI4u6iKVGe2J+GgVdAXd5nwf9RvmEPBLdgkwa0hY
iEdMCRrC0goR5shTOajXoz1Crv5gIlQWEhZ+vaMxARfw4v1pbxdvRPahd/7sklBY
dVZ4ulKg3LM2o2k/cEW7jnykABAqQcSn6CPHQe6hce7zXXw95He5CNC0lYfOuKbp
n1M60weX/HZWnWBRqf8EzQZfW3OSB3vMIeC9NdIAhyeXwkHq4LMUHVkzFkmZpFsj
AgMBAAEwDQYJKoZIhvcNAQELBQADggEBALa3lH4MPop1I2Vm9Gd2Ax5iBrJlD45a
Ozodls2vrq7QQo2yPtW1Sv3piN1eG/hvDagafdcHR5V1d2N6BttwBfQ1jX273f1I
CzJnFDYMkzIereYMMRHEN7drWor1eqOHM3jvOEhgFHlC5Fm2/p8UHOYvfjWDXvqS
GN724HPfxXgclwuUpkATPQ4WwjSLGfFyU3TtpejDPWtVqunYXrDx0j3NcIV2ax4T
Hui3W0VJXH0yAaDHDtsFxS23Aou/l8vfuXNO7qk6eviPgV8P+gaJxXAbilrnJR4l
OZejiGQiH9x49WmES6QxcVyj4QcRpgi0C5ZtHA6et94yzBifQ2B1MvA=
-----END CERTIFICATE-----
