Certificate:
    Data:
        Version: 1 (0x0)
        Serial Number: 1 (0x1)
        Signature Algorithm: sha256WithRSAEncryption
        Issuer: OU=MySQLConnectorPython Root CA, CN=MyConnPy Root CA
        Validity
            Not Before: Jul  7 21:56:10 2020 GMT
            Not After : Jul  7 21:56:10 2021 GMT
        Subject: OU=MySQLConnectorPython Server Cert, CN=localhost
        Subject Public Key Info:
            Public Key Algorithm: rsaEncryption
                RSA Public-Key: (2048 bit)
                Modulus:
                    00:d5:36:f0:7e:fa:d6:aa:62:a8:36:01:02:61:0c:
                    67:51:a7:07:22:a6:5a:33:8d:95:87:d5:fb:72:f9:
                    a2:c8:38:6c:f2:46:3a:0f:1c:fe:be:f4:3e:9d:58:
                    23:31:e4:2e:7d:8e:b9:26:20:5c:34:85:71:44:d0:
                    64:18:01:33:5c:93:e8:b1:10:53:d7:f0:0b:5b:78:
                    b0:4a:1b:7a:05:ee:dc:67:3a:f5:77:43:db:eb:33:
                    84:7f:d2:80:8e:38:d2:1a:ad:d2:ec:c7:6c:73:f3:
                    30:13:f1:b3:99:77:a9:8c:79:1a:a5:a6:a5:c3:47:
                    9b:53:46:f7:e7:da:00:0c:7f:1b:53:bd:af:73:e7:
                    87:92:eb:a5:1c:c3:ab:f6:f8:ab:ff:f2:58:23:03:
                    77:0c:24:de:99:8a:47:27:23:a5:c5:d4:28:9a:58:
                    dc:4b:d3:d6:d3:a1:4c:fd:3f:33:57:00:3a:96:7f:
                    3b:d1:ca:09:07:5a:df:8a:04:3d:52:c3:e9:86:bd:
                    49:04:83:04:2b:92:40:d0:75:47:c8:40:d0:31:6d:
                    33:d0:4f:aa:c0:af:f5:38:a3:3c:7c:22:d4:4a:e5:
                    bf:06:22:cd:b1:bb:a8:bc:ca:08:64:60:c3:93:c8:
                    d9:6e:f3:b7:ee:c2:51:71:57:be:66:bd:47:b1:ea:
                    9f:6b
                Exponent: 65537 (0x10001)
    Signature Algorithm: sha256WithRSAEncryption
         1a:96:84:e5:60:2f:6f:5e:04:c7:73:75:01:fa:04:3f:1f:aa:
         79:46:8f:55:aa:de:32:97:52:56:4f:36:0f:7f:e4:52:f8:8b:
         8b:79:f1:93:09:98:19:82:ed:04:84:9c:44:26:0d:45:9b:b2:
         07:24:ab:9d:8d:fb:7a:dc:bc:c9:f1:de:8e:b2:59:30:68:f5:
         7e:02:59:3d:0f:4f:22:7c:de:c6:4b:40:98:6d:3a:68:15:be:
         7a:48:21:2d:9a:e9:47:3d:1e:e2:9a:6d:55:d6:3d:88:50:6d:
         5f:c2:9d:6b:7f:11:ee:05:ae:ca:3e:71:44:07:a6:d8:cb:47:
         41:bc:8a:1f:de:d6:43:f2:99:8a:9c:4e:77:72:60:75:31:e4:
         1f:30:bc:7f:cb:88:d0:eb:04:3b:2f:56:99:e3:2d:62:82:54:
         36:d0:e0:d4:3f:c9:21:80:fd:b3:2c:e7:3b:d4:e1:b5:94:0a:
         b0:8e:a0:fe:c9:8a:33:67:4e:7c:3d:27:97:46:e1:1f:2c:5a:
         8a:63:fd:78:b9:73:73:22:38:1f:d5:7c:8e:1e:3a:73:82:c5:
         b6:a6:f6:fe:53:23:98:0e:0f:e8:d0:7d:18:5c:bd:5b:15:21:
         ba:f2:c2:93:25:8f:72:f5:1b:20:4f:2d:17:b6:8f:51:74:f2:
         90:b4:09:9a
-----BEGIN CERTIFICATE-----
MIIC9TCCAd0CAQEwDQYJKoZIhvcNAQELBQAwQjElMCMGA1UECwwcTXlTUUxDb25u
ZWN0b3JQeXRob24gUm9vdCBDQTEZMBcGA1UEAwwQTXlDb25uUHkgUm9vdCBDQTAe
Fw0yMDA3MDcyMTU2MTBaFw0yMTA3MDcyMTU2MTBaMD8xKTAnBgNVBAsMIE15U1FM
Q29ubmVjdG9yUHl0aG9uIFNlcnZlciBDZXJ0MRIwEAYDVQQDDAlsb2NhbGhvc3Qw
ggEiMA0GCSqGSIb3DQEBAQUAA4IBDwAwggEKAoIBAQDVNvB++taqYqg2AQJhDGdR
pwciplozjZWH1fty+aLIOGzyRjoPHP6+9D6dWCMx5C59jrkmIFw0hXFE0GQYATNc
k+ixEFPX8AtbeLBKG3oF7txnOvV3Q9vrM4R/0oCOONIardLsx2xz8zAT8bOZd6mM
eRqlpqXDR5tTRvfn2gAMfxtTva9z54eS66Ucw6v2+Kv/8lgjA3cMJN6ZikcnI6XF
1CiaWNxL09bToUz9PzNXADqWfzvRygkHWt+KBD1Sw+mGvUkEgwQrkkDQdUfIQNAx
bTPQT6rAr/U4ozx8ItRK5b8GIs2xu6i8yghkYMOTyNlu87fuwlFxV75mvUex6p9r
AgMBAAEwDQYJKoZIhvcNAQELBQADggEBABqWhOVgL29eBMdzdQH6BD8fqnlGj1Wq
3jKXUlZPNg9/5FL4i4t58ZMJmBmC7QSEnEQmDUWbsgckq52N+3rcvMnx3o6yWTBo
9X4CWT0PTyJ83sZLQJhtOmgVvnpIIS2a6Uc9HuKabVXWPYhQbV/CnWt/Ee4Frso+
cUQHptjLR0G8ih/e1kPymYqcTndyYHUx5B8wvH/LiNDrBDsvVpnjLWKCVDbQ4NQ/
ySGA/bMs5zvU4bWUCrCOoP7JijNnTnw9J5dG4R8sWopj/Xi5c3MiOB/VfI4eOnOC
xbam9v5TI5gOD+jQfRhcvVsVIbrywpMlj3L1GyBPLRe2j1F08pC0CZo=
-----END CERTIFICATE-----
