Certificate:
    Data:
        Version: 1 (0x0)
        Serial Number: 1 (0x1)
    Signature Algorithm: md5WithRSAEncryption
        Issuer: OU=MySQLConnectorPython Root CA, CN=MyConnPy Root CA
        Validity
            Not Before: Jul 12 09:42:28 2017 GMT
            Not After : Jul 12 09:42:28 2018 GMT
        Subject: OU=MySQLConnectorPython Server Cert, CN=localhost
        Subject Public Key Info:
            Public Key Algorithm: rsaEncryption
                Public-Key: (2048 bit)
                Modulus:
                    00:ea:77:37:62:c6:d7:fb:96:17:d6:87:11:f3:dd:
                    4e:ee:28:34:73:7f:96:c1:06:4f:2d:6e:e9:02:8c:
                    b0:82:49:5f:43:7b:6b:06:b9:71:45:72:1a:d8:c6:
                    24:00:7c:8d:cf:6d:0f:61:e5:62:2b:56:68:a8:9f:
                    94:87:7a:f6:9d:04:99:ed:15:d2:af:f3:f3:f7:72:
                    3b:cc:15:fa:53:52:6e:7d:3b:1d:70:f4:f1:9f:04:
                    f0:ce:2f:38:46:cd:30:07:01:46:07:f9:c0:c3:32:
                    0f:24:35:52:92:d4:ed:36:c3:69:a2:91:b5:48:81:
                    2a:34:5a:b0:bb:2d:eb:d4:65:b9:e5:23:16:e1:0c:
                    24:9c:27:29:38:8b:77:f1:21:25:90:8c:19:f3:e1:
                    a5:f2:98:63:90:c1:da:bb:19:6c:b0:b4:23:76:43:
                    09:c3:0b:13:c7:d8:a0:8b:70:68:3c:49:e0:36:29:
                    c4:6e:90:59:fa:85:64:d1:a3:5e:8f:fb:af:ff:61:
                    4a:ea:fd:10:80:25:0f:e6:cc:f1:c1:f2:71:30:ac:
                    21:d3:39:77:9f:25:82:a7:b9:e0:31:c8:78:10:12:
                    da:18:bf:13:9f:e5:a2:75:e3:0c:13:1d:56:d9:3f:
                    0b:25:62:a2:8d:b2:18:94:c2:23:7e:94:04:05:06:
                    fb:33
                Exponent: 65537 (0x10001)
    Signature Algorithm: md5WithRSAEncryption
         1a:e8:5f:e0:f4:44:9c:32:0d:51:01:79:01:f6:26:1c:47:d2:
         d9:36:88:e3:24:ec:95:df:20:56:40:33:51:e7:b8:9b:20:cd:
         03:89:33:49:03:45:1d:d3:2d:00:69:ec:08:ed:01:63:45:84:
         d7:ba:bd:1c:a7:f9:49:e8:1b:95:5f:15:f9:a9:ee:01:f6:d6:
         f6:de:79:89:32:f6:d8:bc:9e:c1:30:ed:48:bb:c9:4d:32:ca:
         13:b0:f5:92:12:fe:03:65:22:7b:f5:42:8b:c8:1b:2d:3a:a2:
         30:10:7a:a4:58:6f:25:65:a0:a2:b5:ea:bf:d6:74:73:ae:16:
         45:ed:cb:b2:ab:0e:b6:3a:fd:0f:2f:07:9a:a6:59:f3:dd:8d:
         40:84:38:55:16:d6:f6:ad:f2:8d:67:e6:fc:99:c9:84:b3:f0:
         38:94:cd:d9:89:24:dd:a7:54:67:16:d5:b3:3b:27:c1:10:79:
         f4:7b:3f:f9:de:18:1a:8b:29:0b:24:e8:37:4e:2c:70:0f:4b:
         d4:dd:8b:6e:7f:c1:ab:54:eb:b9:54:e8:de:87:03:81:53:2f:
         5a:94:d4:c4:f1:d8:49:4b:4d:37:81:4f:be:dd:69:a5:36:c7:
         72:84:1b:f1:a0:d9:20:a1:2f:6a:a1:5f:33:62:a8:86:7d:08:
         e7:31:6a:85
-----BEGIN CERTIFICATE-----
MIIC9TCCAd0CAQEwDQYJKoZIhvcNAQEEBQAwQjElMCMGA1UECwwcTXlTUUxDb25u
ZWN0b3JQeXRob24gUm9vdCBDQTEZMBcGA1UEAwwQTXlDb25uUHkgUm9vdCBDQTAe
Fw0xNzA3MTIwOTQyMjhaFw0xODA3MTIwOTQyMjhaMD8xKTAnBgNVBAsMIE15U1FM
Q29ubmVjdG9yUHl0aG9uIFNlcnZlciBDZXJ0MRIwEAYDVQQDDAlsb2NhbGhvc3Qw
ggEiMA0GCSqGSIb3DQEBAQUAA4IBDwAwggEKAoIBAQDqdzdixtf7lhfWhxHz3U7u
KDRzf5bBBk8tbukCjLCCSV9De2sGuXFFchrYxiQAfI3PbQ9h5WIrVmion5SHevad
BJntFdKv8/P3cjvMFfpTUm59Ox1w9PGfBPDOLzhGzTAHAUYH+cDDMg8kNVKS1O02
w2mikbVIgSo0WrC7LevUZbnlIxbhDCScJyk4i3fxISWQjBnz4aXymGOQwdq7GWyw
tCN2QwnDCxPH2KCLcGg8SeA2KcRukFn6hWTRo16P+6//YUrq/RCAJQ/mzPHB8nEw
rCHTOXefJYKnueAxyHgQEtoYvxOf5aJ14wwTHVbZPwslYqKNshiUwiN+lAQFBvsz
AgMBAAEwDQYJKoZIhvcNAQEEBQADggEBABroX+D0RJwyDVEBeQH2JhxH0tk2iOMk
7JXfIFZAM1HnuJsgzQOJM0kDRR3TLQBp7AjtAWNFhNe6vRyn+UnoG5VfFfmp7gH2
1vbeeYky9ti8nsEw7Ui7yU0yyhOw9ZIS/gNlInv1QovIGy06ojAQeqRYbyVloKK1
6r/WdHOuFkXty7KrDrY6/Q8vB5qmWfPdjUCEOFUW1vat8o1n5vyZyYSz8DiUzdmJ
JN2nVGcW1bM7J8EQefR7P/neGBqLKQsk6DdOLHAPS9Tdi25/watU67lU6N6HA4FT
L1qU1MTx2ElLTTeBT77daaU2x3KEG/Gg2SChL2qhXzNiqIZ9COcxaoU=
-----END CERTIFICATE-----
