Certificate:
    Data:
        Version: 1 (0x0)
        Serial Number: 1 (0x1)
        Signature Algorithm: sha256WithRSAEncryption
        Issuer: OU=MySQLConnectorPython Root CA, CN=MyConnPy Root CA
        Validity
            Not Before: Jul 19 16:26:11 2023 GMT
            Not After : Jul 18 16:26:11 2024 GMT
        Subject: OU=MySQLConnectorPython Server Cert, CN=localhost
        Subject Public Key Info:
            Public Key Algorithm: rsaEncryption
                Public-Key: (2048 bit)
                Modulus:
                    00:af:93:69:09:7c:2f:bb:da:cf:d9:79:b4:04:5d:
                    31:fe:24:f6:fd:86:18:f3:43:06:06:1f:78:fa:fe:
                    4c:d9:d7:36:f9:bb:c8:cb:70:0d:a4:6e:98:7a:8a:
                    27:1a:48:7a:63:0c:f0:82:cb:a3:c2:ee:57:ef:50:
                    7a:6f:82:f8:ee:a2:ee:71:b9:a4:2a:79:ba:7d:a2:
                    b2:c3:dd:32:8d:93:0d:a7:6f:b5:0c:37:2a:33:1d:
                    0c:48:a4:62:0d:fd:f8:f1:a5:64:91:e7:99:06:8a:
                    9c:36:97:ff:10:28:52:b9:49:dd:01:f6:30:8c:d9:
                    82:d2:90:b0:d3:35:06:e7:91:27:26:e3:a1:eb:db:
                    ee:98:6d:8f:6a:51:70:ed:d8:71:bb:37:52:48:19:
                    28:9e:d6:5c:4c:4c:e7:d4:f7:ec:05:f2:2f:a5:c2:
                    9e:5b:99:24:70:76:9a:a4:7f:ad:fa:9a:30:22:1a:
                    de:18:e9:0c:9f:57:c8:c2:6e:81:b7:d6:0d:01:a1:
                    9c:7f:3f:f7:08:c5:a0:b7:5b:c9:52:c5:e9:8d:f8:
                    c2:08:7b:97:8f:77:30:93:65:ac:27:2b:5f:6c:c6:
                    68:0f:06:dc:2b:d6:dd:5b:7f:5e:90:6c:c5:82:37:
                    75:9f:cd:b2:25:b6:1b:41:11:d5:6a:d2:16:17:9a:
                    72:d9
                Exponent: 65537 (0x10001)
    Signature Algorithm: sha256WithRSAEncryption
    Signature Value:
        e6:06:b1:76:dc:37:70:5e:c0:ae:5e:15:e4:d5:5e:34:04:d5:
        4f:f2:18:ed:2a:71:9a:8c:e5:63:28:b9:cc:89:b0:e1:17:69:
        e1:73:ef:a9:2f:c7:c9:b1:38:4a:ec:c4:37:8a:51:f2:eb:37:
        43:a0:47:8b:ac:51:c6:42:07:2b:23:79:14:f1:15:31:4d:9b:
        d3:fe:8b:44:3c:0c:dc:bc:a9:ea:a1:ac:83:0a:92:75:23:00:
        36:e4:05:ca:91:90:86:26:63:44:a2:ad:ce:a1:9e:b2:93:27:
        fe:e2:f1:ec:a5:d2:57:96:b5:b0:f7:3c:80:65:fd:10:91:a4:
        c8:fb:56:bf:e4:cc:9d:1e:8b:35:09:2a:9e:2b:c6:d2:67:97:
        a4:de:b8:08:c3:cd:d5:0c:15:0e:19:72:9b:cd:d1:bc:ed:ef:
        b8:53:d4:69:76:91:2b:b9:ea:24:15:05:b1:85:e0:bc:cf:e2:
        de:33:2d:df:bf:4d:f9:96:c0:0d:c9:20:23:7c:8d:da:ec:60:
        8f:92:0c:7e:8b:f9:c0:cf:17:f5:c8:49:28:5e:0b:61:2a:ef:
        73:23:60:88:82:1e:ae:47:6f:e5:c8:cb:d5:fe:c5:56:88:80:
        0b:14:e7:b7:ed:29:29:a8:ab:1c:cf:08:f2:93:a9:4d:b5:ba:
        07:52:1b:9f
-----BEGIN CERTIFICATE-----
MIIC9TCCAd0CAQEwDQYJKoZIhvcNAQELBQAwQjElMCMGA1UECwwcTXlTUUxDb25u
ZWN0b3JQeXRob24gUm9vdCBDQTEZMBcGA1UEAwwQTXlDb25uUHkgUm9vdCBDQTAe
Fw0yMzA3MTkxNjI2MTFaFw0yNDA3MTgxNjI2MTFaMD8xKTAnBgNVBAsMIE15U1FM
Q29ubmVjdG9yUHl0aG9uIFNlcnZlciBDZXJ0MRIwEAYDVQQDDAlsb2NhbGhvc3Qw
ggEiMA0GCSqGSIb3DQEBAQUAA4IBDwAwggEKAoIBAQCvk2kJfC+72s/ZebQEXTH+
JPb9hhjzQwYGH3j6/kzZ1zb5u8jLcA2kbph6iicaSHpjDPCCy6PC7lfvUHpvgvju
ou5xuaQqebp9orLD3TKNkw2nb7UMNyozHQxIpGIN/fjxpWSR55kGipw2l/8QKFK5
Sd0B9jCM2YLSkLDTNQbnkScm46Hr2+6YbY9qUXDt2HG7N1JIGSie1lxMTOfU9+wF
8i+lwp5bmSRwdpqkf636mjAiGt4Y6QyfV8jCboG31g0BoZx/P/cIxaC3W8lSxemN
+MIIe5ePdzCTZawnK19sxmgPBtwr1t1bf16QbMWCN3WfzbIlthtBEdVq0hYXmnLZ
AgMBAAEwDQYJKoZIhvcNAQELBQADggEBAOYGsXbcN3BewK5eFeTVXjQE1U/yGO0q
cZqM5WMoucyJsOEXaeFz76kvx8mxOErsxDeKUfLrN0OgR4usUcZCBysjeRTxFTFN
m9P+i0Q8DNy8qeqhrIMKknUjADbkBcqRkIYmY0Sirc6hnrKTJ/7i8eyl0leWtbD3
PIBl/RCRpMj7Vr/kzJ0eizUJKp4rxtJnl6TeuAjDzdUMFQ4ZcpvN0bzt77hT1Gl2
kSu56iQVBbGF4LzP4t4zLd+/TfmWwA3JICN8jdrsYI+SDH6L+cDPF/XISSheC2Eq
73MjYIiCHq5Hb+XIy9X+xVaIgAsU57ftKSmoqxzPCPKTqU21ugdSG58=
-----END CERTIFICATE-----
